(dp0
I1
(dp1
S'seg_95'
p2
F154.77329807319924
sS'seg_90'
p3
F135.12455486927155
sS'seg_50'
p4
F166.7478622813448
sS'seg_55'
p5
F146.2334762193804
sS'seg_35'
p6
F164.78408419209205
sS'seg_30'
p7
F157.8050698535692
sS'seg_70'
p8
F141.34332568537218
sS'seg_15'
p9
F178.55198361477466
sS'seg_75'
p10
F133.9473129146175
sS'seg_10'
p11
F181.822085948494
sS'seg_5'
p12
F196.37274438627807
sS'seg_0'
p13
F209.3292432227222
sS'seg_100'
p14
F172.9390877180347
sS'seg_45'
p15
F148.77508221476594
sS'seg_40'
p16
F172.22508279281982
sS'seg_80'
p17
F126.93458956084586
sS'sw'
p18
F230.27694995008312
sS'seg_85'
p19
F129.09919554608075
sS'seg_25'
p20
F160.39601983173088
sS'seg_20'
p21
F167.71726111618491
sS'seg_60'
p22
F138.73487045695833
sS'seg_65'
p23
F143.6722433594996
ssI2
(dp24
S'seg_95'
p25
F392.73479804918054
sS'seg_90'
p26
F183.50702070714084
sS'seg_50'
p27
F6619940.642850819
sS'seg_55'
p28
F13078220.453702562
sS'seg_35'
p29
F60842.93601590826
sS'seg_30'
p30
F2150983930.2088547
sS'seg_70'
p31
F394.99013334787844
sS'seg_15'
p32
F7.030904710970245e+19
sS'seg_75'
p33
F475.09474262436487
sS'seg_10'
p34
F3.552115552699906e+28
sS'seg_5'
p35
F9.883258399415559e+39
sS'seg_0'
p36
F2.0962603781721177e+59
sS'seg_100'
p37
F132.33755414040525
sS'seg_45'
p38
F5864566.61277004
sS'seg_40'
p39
F5130007.136467891
sS'seg_80'
p40
F152.08617919820165
sg18
F157689.35171275996
sS'seg_85'
p41
F248.78789852663363
sS'seg_25'
p42
F2.2967176747056844e+16
sS'seg_20'
p43
F2894547174482.842
sS'seg_60'
p44
F1435.6330233279514
sS'seg_65'
p45
F1705.258538499101
ssI3
(dp46
S'seg_95'
p47
F179.19949787347167
sS'seg_90'
p48
F180.1142781025983
sS'seg_50'
p49
F200.59649376737138
sS'seg_55'
p50
F199.89623035083872
sS'seg_35'
p51
F211.7224332456639
sS'seg_30'
p52
F210.580342774199
sS'seg_70'
p53
F189.51169997569122
sS'seg_15'
p54
F213.21897731509506
sS'seg_75'
p55
F188.06948015574207
sS'seg_10'
p56
F215.55996098273718
sS'seg_5'
p57
F211.68926978811902
sS'seg_0'
p58
F211.77743719248014
sS'seg_100'
p59
F179.7095932960931
sS'seg_45'
p60
F213.21383517072795
sS'seg_40'
p61
F228.5939960478051
sS'seg_80'
p62
F191.31292473424622
sg18
F202.9975177197495
sS'seg_85'
p63
F181.9661623767816
sS'seg_25'
p64
F213.0147805129539
sS'seg_20'
p65
F213.81312543546218
sS'seg_60'
p66
F196.17629785881635
sS'seg_65'
p67
F193.21835572875634
ssI4
(dp68
S'seg_95'
p69
F427.22191244839297
sS'seg_90'
p70
F417.0668190450357
sS'seg_50'
p71
F405.04697716717715
sS'seg_55'
p72
F408.49050278759086
sS'seg_35'
p73
F362.57428759405923
sS'seg_30'
p74
F360.3048147215871
sS'seg_70'
p75
F417.30662147179044
sS'seg_15'
p76
F349.5393060475977
sS'seg_75'
p77
F409.78766909347496
sS'seg_10'
p78
F338.76882800658007
sS'seg_5'
p79
F357.1689526073543
sS'seg_0'
p80
F357.49376715668444
sS'seg_100'
p81
F457.91958796483766
sS'seg_45'
p82
F384.6467180850112
sS'seg_40'
p83
F386.49508532378024
sS'seg_80'
p84
F391.87447780890915
sg18
F1292711.7495406638
sS'seg_85'
p85
F404.8275223696956
sS'seg_25'
p86
F349.2832431996202
sS'seg_20'
p87
F338.14967332090157
sS'seg_60'
p88
F417.2825531651473
sS'seg_65'
p89
F411.9382499367357
ssI5
(dp90
S'seg_95'
p91
F354.20077081394845
sS'seg_90'
p92
F354.5528614113537
sS'seg_50'
p93
F396.861822254365
sS'seg_55'
p94
F358.7609845920903
sS'seg_35'
p95
F404.8057278473394
sS'seg_30'
p96
F417.5997033790899
sS'seg_70'
p97
F356.80320136507237
sS'seg_15'
p98
F425.62983063278415
sS'seg_75'
p99
F356.1859756134073
sS'seg_10'
p100
F425.0476128614543
sS'seg_5'
p101
F425.96974456449544
sS'seg_0'
p102
F426.76996757281285
sS'seg_100'
p103
F354.03602792590243
sS'seg_45'
p104
F403.9085744831365
sS'seg_40'
p105
F416.9908197629221
sS'seg_80'
p106
F355.66127048875677
sg18
F362.69293376798134
sS'seg_85'
p107
F355.05844328709645
sS'seg_25'
p108
F424.6732928913884
sS'seg_20'
p109
F425.8812789272956
sS'seg_60'
p110
F364.5461176852702
sS'seg_65'
p111
F357.35818076560827
ssI6
(dp112
S'seg_95'
p113
F87.95567182584664
sS'seg_90'
p114
F88.43498326020449
sS'seg_50'
p115
F171.04420120768742
sS'seg_55'
p116
F136.59955746813426
sS'seg_35'
p117
F195.07864820362076
sS'seg_30'
p118
F236.4523009792377
sS'seg_70'
p119
F96.89399819520364
sS'seg_15'
p120
F252.7817623194162
sS'seg_75'
p121
F97.47157261946529
sS'seg_10'
p122
F272.2167004781737
sS'seg_5'
p123
F317.79403240599385
sS'seg_0'
p124
F302.43466798824227
sS'seg_100'
p125
F87.81728583676352
sS'seg_45'
p126
F178.63702673618582
sS'seg_40'
p127
F203.1627323437253
sS'seg_80'
p128
F94.57675694508796
sg18
F9.51656081754782e+55
sS'seg_85'
p129
F89.94933732508889
sS'seg_25'
p130
F212.11554840643026
sS'seg_20'
p131
F231.04822932243601
sS'seg_60'
p132
F110.0426636154119
sS'seg_65'
p133
F118.29716033692482
ssI7
(dp134
S'seg_95'
p135
F214.53375059693272
sS'seg_90'
p136
F225.83599187424346
sS'seg_50'
p137
F665.3980474848875
sS'seg_55'
p138
F607.7335505580264
sS'seg_35'
p139
F639.5074121665162
sS'seg_30'
p140
F725.5365794053616
sS'seg_70'
p141
F417.4118913988108
sS'seg_15'
p142
F642.673538499747
sS'seg_75'
p143
F270.6177396394203
sS'seg_10'
p144
F584.8332262800413
sS'seg_5'
p145
F820.4712027093674
sS'seg_0'
p146
F7263.703201751488
sS'seg_100'
p147
F205.8020878860903
sS'seg_45'
p148
F642.0182436572874
sS'seg_40'
p149
F666.648897825708
sS'seg_80'
p150
F290.43554312265934
sg18
F26956293.65527273
sS'seg_85'
p151
F272.8551398751237
sS'seg_25'
p152
F683.4936353186034
sS'seg_20'
p153
F640.968164906414
sS'seg_60'
p154
F599.6126505259359
sS'seg_65'
p155
F467.3777348045436
ssI8
(dp156
S'seg_95'
p157
F604.1163810709686
sS'seg_90'
p158
F485.49559645914815
sS'seg_50'
p159
F174.00346161330577
sS'seg_55'
p160
F142.6481865776351
sS'seg_35'
p161
F160.9449958466002
sS'seg_30'
p162
F168.6724120775046
sS'seg_70'
p163
F269.9951905340418
sS'seg_15'
p164
F298.09534041228005
sS'seg_75'
p165
F270.7759475877983
sS'seg_10'
p166
F259.7105482043281
sS'seg_5'
p167
F196.18311321823802
sS'seg_0'
p168
F268.9754200267407
sS'seg_100'
p169
F559.0932509920129
sS'seg_45'
p170
F163.97379858675728
sS'seg_40'
p171
F264.9643945627289
sS'seg_80'
p172
F297.8993226472038
sg18
F211.98900003110947
sS'seg_85'
p173
F333.01730196928895
sS'seg_25'
p174
F249.2825510174644
sS'seg_20'
p175
F259.37435019042806
sS'seg_60'
p176
F191.10310383057893
sS'seg_65'
p177
F220.21603833044378
ssI9
(dp178
S'seg_95'
p179
F351.1995799649666
sS'seg_90'
p180
F352.69039235638354
sS'seg_50'
p181
F365.10771453966606
sS'seg_55'
p182
F356.0301743954509
sS'seg_35'
p183
F370.6482153755168
sS'seg_30'
p184
F367.392073913066
sS'seg_70'
p185
F354.8407868591136
sS'seg_15'
p186
F370.5453609247091
sS'seg_75'
p187
F351.4109022296444
sS'seg_10'
p188
F373.54524303482646
sS'seg_5'
p189
F385.3670088161938
sS'seg_0'
p190
F399.7737856880624
sS'seg_100'
p191
F347.79298591020466
sS'seg_45'
p192
F363.7294736979785
sS'seg_40'
p193
F364.0500140799563
sS'seg_80'
p194
F358.19112409873804
sg18
F6.176452717119305e+113
sS'seg_85'
p195
F358.9610811447824
sS'seg_25'
p196
F365.0201891000928
sS'seg_20'
p197
F364.99334054156674
sS'seg_60'
p198
F355.8406344282819
sS'seg_65'
p199
F356.47069036409914
ssI10
(dp200
S'seg_95'
p201
F185.44470302738935
sS'seg_90'
p202
F163.93609697430324
sS'seg_50'
p203
F98.16884334291275
sS'seg_55'
p204
F152.16166690061843
sS'seg_35'
p205
F84.54538113446726
sS'seg_30'
p206
F87.49948097541045
sS'seg_70'
p207
F247.1733139619258
sS'seg_15'
p208
F87.5131199527422
sS'seg_75'
p209
F239.52650416299875
sS'seg_10'
p210
F88.91209148533886
sS'seg_5'
p211
F90.15777190120079
sS'seg_0'
p212
F89.22361960062837
sS'seg_100'
p213
F128.89798100733648
sS'seg_45'
p214
F94.77741132574359
sS'seg_40'
p215
F83.43472467644169
sS'seg_80'
p216
F213.8629406880103
sg18
F157.7055381553688
sS'seg_85'
p217
F235.77229066080008
sS'seg_25'
p218
F86.32142761360878
sS'seg_20'
p219
F86.88206433058222
sS'seg_60'
p220
F109.20235375812997
sS'seg_65'
p221
F279.0028564398252
ssI11
(dp222
S'seg_95'
p223
F1095.0023703815536
sS'seg_90'
p224
F1524.153538773657
sS'seg_50'
p225
F494086.3334283647
sS'seg_55'
p226
F295665.7856504043
sS'seg_35'
p227
F1222782.910960938
sS'seg_30'
p228
F674207.5520806521
sS'seg_70'
p229
F17993.51834817724
sS'seg_15'
p230
F61.23306524846889
sS'seg_75'
p231
F5396.957328861804
sS'seg_10'
p232
F63.77993733230024
sS'seg_5'
p233
F66.11439734589706
sS'seg_0'
p234
F67.95393159858331
sS'seg_100'
p235
F954.6773279003713
sS'seg_45'
p236
F1710982.7184004341
sS'seg_40'
p237
F180828.28265089082
sS'seg_80'
p238
F2898.752516422637
sg18
F44.58391187509097
sS'seg_85'
p239
F1486.1396241859234
sS'seg_25'
p240
F181608.054385036
sS'seg_20'
p241
F97078.6608619713
sS'seg_60'
p242
F19659.14077103913
sS'seg_65'
p243
F16939.696223950123
ssI12
(dp244
S'seg_95'
p245
F63.69154496956787
sS'seg_90'
p246
F64.67012349722033
sS'seg_50'
p247
F123.10125006859167
sS'seg_55'
p248
F71.00922543366926
sS'seg_35'
p249
F601.571702424191
sS'seg_30'
p250
F2291.8139505958156
sS'seg_70'
p251
F64.89934028080403
sS'seg_15'
p252
F9662.92605694375
sS'seg_75'
p253
F66.38421247944885
sS'seg_10'
p254
F75399.32406523995
sS'seg_5'
p255
F5048873.13953986
sS'seg_0'
p256
F7053483.967099674
sS'seg_100'
p257
F54.31512936152795
sS'seg_45'
p258
F528.8408354235407
sS'seg_40'
p259
F310.8727291180499
sS'seg_80'
p260
F65.12908921952759
sg18
F7170.539418976932
sS'seg_85'
p261
F66.54092251279664
sS'seg_25'
p262
F4524.767828530072
sS'seg_20'
p263
F42075.74692719993
sS'seg_60'
p264
F65.32709252396205
sS'seg_65'
p265
F73.47569918529118
ssI13
(dp266
S'seg_95'
p267
F323.7359084184774
sS'seg_90'
p268
F383.6415078360242
sS'seg_50'
p269
F209.7915473971356
sS'seg_55'
p270
F227.2501665844553
sS'seg_35'
p271
F239.0109129127395
sS'seg_30'
p272
F242.49790593004468
sS'seg_70'
p273
F251.83561462276634
sS'seg_15'
p274
F260.8961831273158
sS'seg_75'
p275
F286.62720761325556
sS'seg_10'
p276
F278.2439992236583
sS'seg_5'
p277
F295.3437285096423
sS'seg_0'
p278
F331.9348668562186
sS'seg_100'
p279
F497.63853376512117
sS'seg_45'
p280
F245.41862274738259
sS'seg_40'
p281
F256.1095517808336
sS'seg_80'
p282
F225.9013134643863
sg18
F1472.0723452102056
sS'seg_85'
p283
F232.28960290780532
sS'seg_25'
p284
F237.74433876913122
sS'seg_20'
p285
F250.6432483617256
sS'seg_60'
p286
F249.81968439347102
sS'seg_65'
p287
F267.14898089576
ssI14
(dp288
S'seg_95'
p289
F138.50538372564483
sS'seg_90'
p290
F146.14324679569006
sS'seg_50'
p291
F351.31411955809074
sS'seg_55'
p292
F280.8909224312269
sS'seg_35'
p293
F413.3459826340756
sS'seg_30'
p294
F874.1539701203203
sS'seg_70'
p295
F217.97901736268085
sS'seg_15'
p296
F11526.558583431477
sS'seg_75'
p297
F221.54688649315958
sS'seg_10'
p298
F22621.660492921772
sS'seg_5'
p299
F4131.340550879532
sS'seg_0'
p300
F11964.962601996762
sS'seg_100'
p301
F123.1445417678676
sS'seg_45'
p302
F373.3187008045026
sS'seg_40'
p303
F269.5104911019263
sS'seg_80'
p304
F259.893832036536
sg18
F406.9995943385978
sS'seg_85'
p305
F213.0949760418884
sS'seg_25'
p306
F378.64433821126397
sS'seg_20'
p307
F1172.172275047877
sS'seg_60'
p308
F253.6878054083968
sS'seg_65'
p309
F262.7354153310956
ssI15
(dp310
S'seg_95'
p311
F70.02075150409101
sS'seg_90'
p312
F86.16099546996499
sS'seg_50'
p313
F120.31364971407723
sS'seg_55'
p314
F89.46063524492868
sS'seg_35'
p315
F523.2981504923332
sS'seg_30'
p316
F307.5280365416976
sS'seg_70'
p317
F85.05529808570532
sS'seg_15'
p318
F947.5943150083334
sS'seg_75'
p319
F82.57455542329707
sS'seg_10'
p320
F1624.0416660921733
sS'seg_5'
p321
F3863.7627386118606
sS'seg_0'
p322
F1327.4917903241585
sS'seg_100'
p323
F70.39711216933314
sS'seg_45'
p324
F165.6716140221463
sS'seg_40'
p325
F315.713228435494
sS'seg_80'
p326
F75.57503775639414
sg18
F7.644876247755608e+165
sS'seg_85'
p327
F79.27387433538759
sS'seg_25'
p328
F14826.398934933535
sS'seg_20'
p329
F970.3706257363756
sS'seg_60'
p330
F92.90036685982726
sS'seg_65'
p331
F109.82847289420377
ssI16
(dp332
S'seg_95'
p333
F1826.1450772492535
sS'seg_90'
p334
F2007.6362312947808
sS'seg_50'
p335
F153.26754686111786
sS'seg_55'
p336
F174.86174785551668
sS'seg_35'
p337
F171.26334076531467
sS'seg_30'
p338
F174.14123778358925
sS'seg_70'
p339
F1931.3436977350314
sS'seg_15'
p340
F185.04930949441442
sS'seg_75'
p341
F1204.541288760574
sS'seg_10'
p342
F181.6873430069334
sS'seg_5'
p343
F188.61173965771917
sS'seg_0'
p344
F208.78458973716812
sS'seg_100'
p345
F3096.7440989049314
sS'seg_45'
p346
F185.42040539269138
sS'seg_40'
p347
F157.6603444479851
sS'seg_80'
p348
F3437.213039497145
sg18
F2.2051787109784256e+22
sS'seg_85'
p349
F2242.298902507295
sS'seg_25'
p350
F182.30505560638127
sS'seg_20'
p351
F225.19347355482523
sS'seg_60'
p352
F357.41299679943984
sS'seg_65'
p353
F1175.1959489923786
ssI17
(dp354
S'seg_95'
p355
F999.4113094159678
sS'seg_90'
p356
F817.7293291092577
sS'seg_50'
p357
F1859.0881259287762
sS'seg_55'
p358
F1504.60492363793
sS'seg_35'
p359
F1230.568434695158
sS'seg_30'
p360
F3525.086935783553
sS'seg_70'
p361
F1056.7072741573647
sS'seg_15'
p362
F12170.680677724878
sS'seg_75'
p363
F1009.4782956694069
sS'seg_10'
p364
F19163.026104086224
sS'seg_5'
p365
F498726.9575770789
sS'seg_0'
p366
F16026.638473241333
sS'seg_100'
p367
F500.9120982569939
sS'seg_45'
p368
F1639.0145369311213
sS'seg_40'
p369
F2159.2940328716454
sS'seg_80'
p370
F884.843162647371
sg18
F2.134619453707206e+45
sS'seg_85'
p371
F1054.437490141117
sS'seg_25'
p372
F3105.732683642254
sS'seg_20'
p373
F3442.809880814283
sS'seg_60'
p374
F1419.2161578256791
sS'seg_65'
p375
F1058.686326292873
ssI18
(dp376
S'seg_95'
p377
F53.08828964178482
sS'seg_90'
p378
F53.20860292312759
sS'seg_50'
p379
F141.74394125327828
sS'seg_55'
p380
F189.53284201421542
sS'seg_35'
p381
F1005.2066781034351
sS'seg_30'
p382
F3656.3762267403754
sS'seg_70'
p383
F95.71854726997074
sS'seg_15'
p384
F1163506.2878190381
sS'seg_75'
p385
F78.3276835949038
sS'seg_10'
p386
F5.2452147377930176e+17
sS'seg_5'
p387
F331442374321648.0
sS'seg_0'
p388
F5.6464514780317286e+17
sS'seg_100'
p389
F52.32874321332177
sS'seg_45'
p390
F351.7680488748799
sS'seg_40'
p391
F248.477047727468
sS'seg_80'
p392
F58.05056518799038
sg18
F1.8288919512237244e+158
sS'seg_85'
p393
F57.95304511268157
sS'seg_25'
p394
F193887.07421252024
sS'seg_20'
p395
F31114.86292182586
sS'seg_60'
p396
F140.26196095086613
sS'seg_65'
p397
F104.0706292592854
ssI19
(dp398
S'seg_95'
p399
F166.26627790638375
sS'seg_90'
p400
F162.6623254916752
sS'seg_50'
p401
F168.2987965577019
sS'seg_55'
p402
F159.62383374991938
sS'seg_35'
p403
F166.37473925391123
sS'seg_30'
p404
F170.8782336169146
sS'seg_70'
p405
F158.0042404049346
sS'seg_15'
p406
F176.2723866088219
sS'seg_75'
p407
F158.42842493892311
sS'seg_10'
p408
F191.98650612688408
sS'seg_5'
p409
F186.58919766961853
sS'seg_0'
p410
F197.0597418475267
sS'seg_100'
p411
F161.48759496885106
sS'seg_45'
p412
F160.59455248655325
sS'seg_40'
p413
F163.9308097702737
sS'seg_80'
p414
F157.9039992881895
sg18
F840.8042541744342
sS'seg_85'
p415
F162.2416914925547
sS'seg_25'
p416
F174.62192310527743
sS'seg_20'
p417
F175.52275591365728
sS'seg_60'
p418
F159.41260697309878
sS'seg_65'
p419
F160.33490666662354
ssI20
(dp420
S'seg_95'
p421
F75.8852904932912
sS'seg_90'
p422
F63.36848540240707
sS'seg_50'
p423
F139.2129155587086
sS'seg_55'
p424
F97.17749476034666
sS'seg_35'
p425
F481.878362249828
sS'seg_30'
p426
F116.43277660708684
sS'seg_70'
p427
F80.4198150192519
sS'seg_15'
p428
F195.9864444046912
sS'seg_75'
p429
F68.34504815543951
sS'seg_10'
p430
F1850.0372026240389
sS'seg_5'
p431
F4823.5896426830905
sS'seg_0'
p432
F3137.3960456866907
sS'seg_100'
p433
F61.20302627145212
sS'seg_45'
p434
F387.1048964913099
sS'seg_40'
p435
F295.5924286364212
sS'seg_80'
p436
F75.59829603906435
sg18
F361.69494574546223
sS'seg_85'
p437
F60.976642145547586
sS'seg_25'
p438
F10542.530144022874
sS'seg_20'
p439
F328.6915854147373
sS'seg_60'
p440
F79.08525494677266
sS'seg_65'
p441
F93.77547725654281
ssI21
(dp442
S'seg_95'
p443
F12112.435526295958
sS'seg_90'
p444
F17127.955921375404
sS'seg_50'
p445
F5875253.043073967
sS'seg_55'
p446
F21489715.611377336
sS'seg_35'
p447
F1195698193.466039
sS'seg_30'
p448
F2.683315460935801e+17
sS'seg_70'
p449
F27575.685856855347
sS'seg_15'
p450
F3.094707079190124e+24
sS'seg_75'
p451
F9.201543788726785e+17
sS'seg_10'
p452
F7.20380819601918e+34
sS'seg_5'
p453
F1.2964964221229536e+42
sS'seg_0'
p454
F4.332338250315368e+42
sS'seg_100'
p455
F19608.068598928596
sS'seg_45'
p456
F6003310.027706958
sS'seg_40'
p457
F1.1452319113509048e+19
sS'seg_80'
p458
F33308.657716671376
sg18
F2.2870387061387347e+138
sS'seg_85'
p459
F20763.609290991117
sS'seg_25'
p460
F2.0678396634530474e+17
sS'seg_20'
p461
F2.590205147067578e+38
sS'seg_60'
p462
F53839.5251163192
sS'seg_65'
p463
F4.8972732415835546e+17
ssI22
(dp464
S'seg_95'
p465
F1611.518956623605
sS'seg_90'
p466
F1554.5001514194505
sS'seg_50'
p467
F5568.235965888876
sS'seg_55'
p468
F4815.3033621240775
sS'seg_35'
p469
F24215.873157861883
sS'seg_30'
p470
F117284.99057504546
sS'seg_70'
p471
F4299.676109166251
sS'seg_15'
p472
F4.440249976524453e+17
sS'seg_75'
p473
F4506.614867061714
sS'seg_10'
p474
F8.494224325835428e+17
sS'seg_5'
p475
F1.2892105406393709e+19
sS'seg_0'
p476
F1.3114313658384355e+19
sS'seg_100'
p477
F915.8367021457136
sS'seg_45'
p478
F9859.012510353852
sS'seg_40'
p479
F10862.510578219624
sS'seg_80'
p480
F2938.2576115777615
sg18
F4.000807375829634e+65
sS'seg_85'
p481
F5385.3712403106065
sS'seg_25'
p482
F62572.01910591022
sS'seg_20'
p483
F1.016546118339641e+16
sS'seg_60'
p484
F4980.90091052326
sS'seg_65'
p485
F2204.257813586651
ssI23
(dp486
S'seg_95'
p487
F139.0617410727174
sS'seg_90'
p488
F138.65012693105567
sS'seg_50'
p489
F149.06581256163605
sS'seg_55'
p490
F144.59414729952417
sS'seg_35'
p491
F155.532087847862
sS'seg_30'
p492
F159.41881782723243
sS'seg_70'
p493
F137.48693312140338
sS'seg_15'
p494
F171.34258891573572
sS'seg_75'
p495
F136.40679467360852
sS'seg_10'
p496
F193.5056555998322
sS'seg_5'
p497
F197.36511428607793
sS'seg_0'
p498
F195.4075688505137
sS'seg_100'
p499
F137.41011502771718
sS'seg_45'
p500
F160.86611020733298
sS'seg_40'
p501
F161.71229019026887
sS'seg_80'
p502
F135.04304156894563
sg18
F7.316744942854256e+37
sS'seg_85'
p503
F134.66817356007408
sS'seg_25'
p504
F163.31291951406163
sS'seg_20'
p505
F172.17893405144335
sS'seg_60'
p506
F139.88516559990043
sS'seg_65'
p507
F141.9521970189218
ssI24
(dp508
S'seg_95'
p509
F200.91770473718157
sS'seg_90'
p510
F201.26080894001723
sS'seg_50'
p511
F208.80820273931818
sS'seg_55'
p512
F207.76045692751805
sS'seg_35'
p513
F215.62523192745033
sS'seg_30'
p514
F219.24792188979205
sS'seg_70'
p515
F203.62349595599818
sS'seg_15'
p516
F236.26092178504527
sS'seg_75'
p517
F203.02191525824767
sS'seg_10'
p518
F252.2586684092937
sS'seg_5'
p519
F259.8436174135503
sS'seg_0'
p520
F332.4672333357015
sS'seg_100'
p521
F200.95811158346058
sS'seg_45'
p522
F210.43908459640593
sS'seg_40'
p523
F214.85555553768782
sS'seg_80'
p524
F202.3313998767637
sg18
F330.36263838255917
sS'seg_85'
p525
F201.69334875064146
sS'seg_25'
p526
F227.3434484506638
sS'seg_20'
p527
F235.091579815672
sS'seg_60'
p528
F205.93033634228337
sS'seg_65'
p529
F205.09155460679636
ssI25
(dp530
S'seg_95'
p531
F44.08684740099349
sS'seg_90'
p532
F44.58523645130557
sS'seg_50'
p533
F46.55194620090813
sS'seg_55'
p534
F46.0604640825524
sS'seg_35'
p535
F49.038512281129464
sS'seg_30'
p536
F49.23840962908036
sS'seg_70'
p537
F44.87446589078707
sS'seg_15'
p538
F53.059554544872796
sS'seg_75'
p539
F44.93799730017915
sS'seg_10'
p540
F55.79675570920559
sS'seg_5'
p541
F56.182622936960136
sS'seg_0'
p542
F57.70445767096568
sS'seg_100'
p543
F43.66552411452955
sS'seg_45'
p544
F47.50450925999286
sS'seg_40'
p545
F48.02556190565956
sS'seg_80'
p546
F44.42113526799112
sg18
F16920682863197.186
sS'seg_85'
p547
F44.181716048208955
sS'seg_25'
p548
F50.70608798303239
sS'seg_20'
p549
F51.90927217434263
sS'seg_60'
p550
F45.794985477376784
sS'seg_65'
p551
F45.84834841203879
ssI26
(dp552
S'seg_95'
p553
F11262.256270271559
sS'seg_90'
p554
F4596.109688919226
sS'seg_50'
p555
F157.1220231988049
sS'seg_55'
p556
F160.975034687185
sS'seg_35'
p557
F211.27622359895332
sS'seg_30'
p558
F215.74655832298262
sS'seg_70'
p559
F6692.505190115847
sS'seg_15'
p560
F223.42242072153704
sS'seg_75'
p561
F4799.323334737278
sS'seg_10'
p562
F240.76684569734226
sS'seg_5'
p563
F322.91083895032835
sS'seg_0'
p564
F263.7443690994141
sS'seg_100'
p565
F11487.806018805406
sS'seg_45'
p566
F200.11886647232888
sS'seg_40'
p567
F193.37028538536745
sS'seg_80'
p568
F3423.3047203245383
sg18
F160.11214885755567
sS'seg_85'
p569
F8596.294968971208
sS'seg_25'
p570
F216.3514868764526
sS'seg_20'
p571
F238.86129474318778
sS'seg_60'
p572
F218.98083333522422
sS'seg_65'
p573
F756.3600404900598
ssI27
(dp574
S'seg_95'
p575
F103.08030721998821
sS'seg_90'
p576
F121.48516191854371
sS'seg_50'
p577
F296.01011591858617
sS'seg_55'
p578
F288.4043547688335
sS'seg_35'
p579
F140.64765303858638
sS'seg_30'
p580
F140.9479511876579
sS'seg_70'
p581
F264.1771998414444
sS'seg_15'
p582
F103.0219601480741
sS'seg_75'
p583
F207.14639649371946
sS'seg_10'
p584
F190.02927913785174
sS'seg_5'
p585
F140.14283418504843
sS'seg_0'
p586
F120.44213154246697
sS'seg_100'
p587
F96.41441746491215
sS'seg_45'
p588
F348.53970952845486
sS'seg_40'
p589
F544.7236317855692
sS'seg_80'
p590
F177.34679912836026
sg18
F79509.82586790742
sS'seg_85'
p591
F131.79078466857987
sS'seg_25'
p592
F115.6031814156914
sS'seg_20'
p593
F112.09585421829429
sS'seg_60'
p594
F302.1449389314649
sS'seg_65'
p595
F183.25620985509786
ssI28
(dp596
S'seg_95'
p597
F124.17622820450063
sS'seg_90'
p598
F123.72874855268518
sS'seg_50'
p599
F133.4102369323085
sS'seg_55'
p600
F133.90702787773995
sS'seg_35'
p601
F134.4217283833363
sS'seg_30'
p602
F137.79756462923035
sS'seg_70'
p603
F125.81630010905883
sS'seg_15'
p604
F141.31816176283044
sS'seg_75'
p605
F126.89293161386702
sS'seg_10'
p606
F143.4913518361646
sS'seg_5'
p607
F147.080384598677
sS'seg_0'
p608
F149.13374042961624
sS'seg_100'
p609
F123.42320716856368
sS'seg_45'
p610
F139.33838668582723
sS'seg_40'
p611
F134.02218273697383
sS'seg_80'
p612
F124.53890859704514
sg18
F161.4063970712806
sS'seg_85'
p613
F123.8295268257865
sS'seg_25'
p614
F136.45257399985206
sS'seg_20'
p615
F138.33171114660468
sS'seg_60'
p616
F127.71795950093401
sS'seg_65'
p617
F126.84025029800299
ssI29
(dp618
S'seg_95'
p619
F246.97738270186574
sS'seg_90'
p620
F246.23640373138088
sS'seg_50'
p621
F267.0481606578986
sS'seg_55'
p622
F262.0970568145218
sS'seg_35'
p623
F270.0652366394319
sS'seg_30'
p624
F272.9114430251932
sS'seg_70'
p625
F254.4574850394616
sS'seg_15'
p626
F279.594033743429
sS'seg_75'
p627
F253.51986831069067
sS'seg_10'
p628
F282.3878056332387
sS'seg_5'
p629
F324.51540801516603
sS'seg_0'
p630
F289.3449404250528
sS'seg_100'
p631
F241.26279218787573
sS'seg_45'
p632
F258.89561782402853
sS'seg_40'
p633
F256.011003323467
sS'seg_80'
p634
F252.97020832890263
sg18
F519.2955973754397
sS'seg_85'
p635
F243.99235306740314
sS'seg_25'
p636
F267.77925915364716
sS'seg_20'
p637
F287.49542264850265
sS'seg_60'
p638
F255.63523920989292
sS'seg_65'
p639
F258.0622831203807
ssI30
(dp640
S'seg_95'
p641
F106.47818278521406
sS'seg_90'
p642
F99.80602007842485
sS'seg_50'
p643
F99.91082419873158
sS'seg_55'
p644
F97.50904908888738
sS'seg_35'
p645
F153.38342096753834
sS'seg_30'
p646
F147.12519356105207
sS'seg_70'
p647
F96.63505102816586
sS'seg_15'
p648
F227.3985462418853
sS'seg_75'
p649
F97.03960427379079
sS'seg_10'
p650
F247.53538499570263
sS'seg_5'
p651
F352.3546550338299
sS'seg_0'
p652
F489.334911243835
sS'seg_100'
p653
F110.85642842899213
sS'seg_45'
p654
F99.94751644655354
sS'seg_40'
p655
F138.75701435010646
sS'seg_80'
p656
F103.49663999090119
sg18
F104.67803691870645
sS'seg_85'
p657
F101.19613076821585
sS'seg_25'
p658
F145.82423697698363
sS'seg_20'
p659
F273.2541143833438
sS'seg_60'
p660
F102.54713391702103
sS'seg_65'
p661
F96.41374543254356
ssI31
(dp662
S'seg_95'
p663
F170.57226183873064
sS'seg_90'
p664
F169.81843667543598
sS'seg_50'
p665
F177.35607043929977
sS'seg_55'
p666
F177.62544893491028
sS'seg_35'
p667
F180.9071626348553
sS'seg_30'
p668
F181.47487153449498
sS'seg_70'
p669
F171.4590094529367
sS'seg_15'
p670
F188.15255769897948
sS'seg_75'
p671
F170.91310753942554
sS'seg_10'
p672
F189.23568538542958
sS'seg_5'
p673
F191.23799412393961
sS'seg_0'
p674
F191.85847851878947
sS'seg_100'
p675
F177.85662242526902
sS'seg_45'
p676
F177.08746306087434
sS'seg_40'
p677
F180.15368450673273
sS'seg_80'
p678
F171.33493690553567
sg18
F195.86628379400543
sS'seg_85'
p679
F169.87525107140598
sS'seg_25'
p680
F187.5024355231828
sS'seg_20'
p681
F185.9233689722897
sS'seg_60'
p682
F175.69318889159769
sS'seg_65'
p683
F172.94569734287916
ssI32
(dp684
S'seg_95'
p685
F160.6527619038066
sS'seg_90'
p686
F159.06005279629315
sS'seg_50'
p687
F168.95992903515997
sS'seg_55'
p688
F167.56568469704615
sS'seg_35'
p689
F173.5087797520954
sS'seg_30'
p690
F179.26225497901567
sS'seg_70'
p691
F164.04492280232097
sS'seg_15'
p692
F183.6021418561265
sS'seg_75'
p693
F162.91140928323324
sS'seg_10'
p694
F185.27905452790435
sS'seg_5'
p695
F180.88888780105776
sS'seg_0'
p696
F188.37679783391144
sS'seg_100'
p697
F159.45333430019835
sS'seg_45'
p698
F170.14082565533764
sS'seg_40'
p699
F170.2687876933959
sS'seg_80'
p700
F161.12342234804953
sg18
F241.1408040170546
sS'seg_85'
p701
F159.7231504142914
sS'seg_25'
p702
F177.18022704516267
sS'seg_20'
p703
F178.8389337163727
sS'seg_60'
p704
F166.8450845806283
sS'seg_65'
p705
F168.639039106543
ssI33
(dp706
S'seg_95'
p707
F41.277526248620504
sS'seg_90'
p708
F41.181740518248894
sS'seg_50'
p709
F40.94098947893399
sS'seg_55'
p710
F40.90198476069063
sS'seg_35'
p711
F41.67359272638657
sS'seg_30'
p712
F41.830871209563036
sS'seg_70'
p713
F40.67112364597059
sS'seg_15'
p714
F47.89929063296189
sS'seg_75'
p715
F40.583634184449856
sS'seg_10'
p716
F53.13302236761501
sS'seg_5'
p717
F59.33032108835935
sS'seg_0'
p718
F567564105.7581253
sS'seg_100'
p719
F41.860069362386426
sS'seg_45'
p720
F41.224866940122425
sS'seg_40'
p721
F41.153984876700335
sS'seg_80'
p722
F40.58948995683553
sg18
F30194.111604766313
sS'seg_85'
p723
F41.02393516562054
sS'seg_25'
p724
F42.95887833236082
sS'seg_20'
p725
F44.96178483261483
sS'seg_60'
p726
F40.94394076969026
sS'seg_65'
p727
F40.69345075907018
ssI34
(dp728
S'seg_95'
p729
F484.1354516633519
sS'seg_90'
p730
F466.1868222604031
sS'seg_50'
p731
F959.4492087594199
sS'seg_55'
p732
F585.4958269393469
sS'seg_35'
p733
F264621.71448589116
sS'seg_30'
p734
F522.8870222290146
sS'seg_70'
p735
F449.76043161584056
sS'seg_15'
p736
F173.52391558816186
sS'seg_75'
p737
F301.4457814842853
sS'seg_10'
p738
F145.69954674659522
sS'seg_5'
p739
F129.36246279144444
sS'seg_0'
p740
F6345.875248401134
sS'seg_100'
p741
F262.5662603605138
sS'seg_45'
p742
F732.6254118960829
sS'seg_40'
p743
F388.04291730355965
sS'seg_80'
p744
F354.16032387430727
sg18
F6.303370316002762e+192
sS'seg_85'
p745
F372.12357458805354
sS'seg_25'
p746
F518.6626472400958
sS'seg_20'
p747
F235.49524586505976
sS'seg_60'
p748
F630.4666841181057
sS'seg_65'
p749
F29003538.83357508
ssI35
(dp750
S'seg_95'
p751
F8868.031797383203
sS'seg_90'
p752
F10266.714122501293
sS'seg_50'
p753
F7611751.616853173
sS'seg_55'
p754
F4.245005674180546e+16
sS'seg_35'
p755
F504946490810.84393
sS'seg_30'
p756
F2.769005481435069e+23
sS'seg_70'
p757
F23167.61712127362
sS'seg_15'
p758
F5.5675250794755974e+17
sS'seg_75'
p759
F33002.805080118975
sS'seg_10'
p760
F2.19178468605224e+24
sS'seg_5'
p761
F5.231354837808103e+80
sS'seg_0'
p762
F5.2807811031974106e+88
sS'seg_100'
p763
F5273.9731051162225
sS'seg_45'
p764
F4907888789218.22
sS'seg_40'
p765
F63819491.09357257
sS'seg_80'
p766
F20133.16815664338
sg18
F1.1435487309837232e+193
sS'seg_85'
p767
F19375.288790242084
sS'seg_25'
p768
F22112507560575.574
sS'seg_20'
p769
F1.1258612685155814e+28
sS'seg_60'
p770
F182630.03170325924
sS'seg_65'
p771
F1348019.8170099254
ssI36
(dp772
S'seg_95'
p773
F89.44742784979869
sS'seg_90'
p774
F93.87634829091445
sS'seg_50'
p775
F65.08486578021089
sS'seg_55'
p776
F69.27194189160882
sS'seg_35'
p777
F71.19310469028946
sS'seg_30'
p778
F67.37706624982584
sS'seg_70'
p779
F74.28851781403685
sS'seg_15'
p780
F69.35497555263004
sS'seg_75'
p781
F68.48750088568025
sS'seg_10'
p782
F71.2412189103937
sS'seg_5'
p783
F70.27816118177833
sS'seg_0'
p784
F71.12810516786097
sS'seg_100'
p785
F77.01174921463179
sS'seg_45'
p786
F65.22049182731949
sS'seg_40'
p787
F66.45548516861015
sS'seg_80'
p788
F73.94688147959731
sg18
F5.0923259972296356e+138
sS'seg_85'
p789
F77.46394728748864
sS'seg_25'
p790
F68.07425697917387
sS'seg_20'
p791
F68.69323618209737
sS'seg_60'
p792
F74.00327294311367
sS'seg_65'
p793
F65.60080301387914
ssI37
(dp794
S'seg_95'
p795
F94.94338016742105
sS'seg_90'
p796
F94.95409320429606
sS'seg_50'
p797
F94.35009091417473
sS'seg_55'
p798
F93.93811225389818
sS'seg_35'
p799
F96.85508918931852
sS'seg_30'
p800
F93.48641426287398
sS'seg_70'
p801
F94.35225786439625
sS'seg_15'
p802
F93.8089692199242
sS'seg_75'
p803
F94.03551173122432
sS'seg_10'
p804
F93.72521586112097
sS'seg_5'
p805
F94.59146859217566
sS'seg_0'
p806
F93.98276528801256
sS'seg_100'
p807
F95.20237040009195
sS'seg_45'
p808
F93.81345070988493
sS'seg_40'
p809
F93.45886568252644
sS'seg_80'
p810
F94.50517127628623
sg18
F4.6045920421453654e+21
sS'seg_85'
p811
F94.7891221277325
sS'seg_25'
p812
F93.66944982186439
sS'seg_20'
p813
F94.00762181119134
sS'seg_60'
p814
F94.02458644936767
sS'seg_65'
p815
F93.90810519239317
ssI38
(dp816
S'seg_95'
p817
F128.0205165564175
sS'seg_90'
p818
F127.72179217183637
sS'seg_50'
p819
F130.1070446808372
sS'seg_55'
p820
F129.31364383294147
sS'seg_35'
p821
F131.17973200413547
sS'seg_30'
p822
F131.68987176969966
sS'seg_70'
p823
F128.23244760415045
sS'seg_15'
p824
F133.62601829628656
sS'seg_75'
p825
F128.17958505928058
sS'seg_10'
p826
F134.13500127355067
sS'seg_5'
p827
F134.90516420423828
sS'seg_0'
p828
F136.01329619062707
sS'seg_100'
p829
F128.33672729898697
sS'seg_45'
p830
F130.22106950251938
sS'seg_40'
p831
F130.91378417548006
sS'seg_80'
p832
F127.95896454686006
sg18
F539.0142747683725
sS'seg_85'
p833
F127.76214519432702
sS'seg_25'
p834
F132.44975181697117
sS'seg_20'
p835
F133.28806911500035
sS'seg_60'
p836
F129.15471363413093
sS'seg_65'
p837
F128.62421456858021
ssI39
(dp838
S'seg_95'
p839
F73.08119611455243
sS'seg_90'
p840
F73.10142492660722
sS'seg_50'
p841
F73.00251404583318
sS'seg_55'
p842
F74.00501876620866
sS'seg_35'
p843
F296.0183158507509
sS'seg_30'
p844
F287.060910893561
sS'seg_70'
p845
F73.17430725424168
sS'seg_15'
p846
F376.40413328093877
sS'seg_75'
p847
F73.0322544685633
sS'seg_10'
p848
F477.66849205976615
sS'seg_5'
p849
F383.24638498022387
sS'seg_0'
p850
F1522.9088364074573
sS'seg_100'
p851
F73.03300430410275
sS'seg_45'
p852
F101.31331677021782
sS'seg_40'
p853
F78.75801724109853
sS'seg_80'
p854
F73.11497493583548
sg18
F15912980293.331581
sS'seg_85'
p855
F72.89563177941827
sS'seg_25'
p856
F336.4713939973456
sS'seg_20'
p857
F308.8128416026387
sS'seg_60'
p858
F73.27037505629352
sS'seg_65'
p859
F73.3047350607138
ssI40
(dp860
S'seg_95'
p861
F257.0875817009416
sS'seg_90'
p862
F386.16847012950217
sS'seg_50'
p863
F334.88106354424906
sS'seg_55'
p864
F867.1402273933224
sS'seg_35'
p865
F172.79506196956055
sS'seg_30'
p866
F181.329712519072
sS'seg_70'
p867
F873.913794955979
sS'seg_15'
p868
F198.37870348808238
sS'seg_75'
p869
F513.744850270553
sS'seg_10'
p870
F209.6748786764295
sS'seg_5'
p871
F227.24758348219365
sS'seg_0'
p872
F235.7321230589764
sS'seg_100'
p873
F266.3438213015779
sS'seg_45'
p874
F162.4729608076853
sS'seg_40'
p875
F289.68776235118065
sS'seg_80'
p876
F448.59822304246006
sg18
F4.194496730344457e+40
sS'seg_85'
p877
F455.5655049839891
sS'seg_25'
p878
F186.55344774715525
sS'seg_20'
p879
F194.14072031770067
sS'seg_60'
p880
F715.2120769303914
sS'seg_65'
p881
F1089.614120528298
ssI41
(dp882
S'seg_95'
p883
F85.63098493335282
sS'seg_90'
p884
F85.96354523503473
sS'seg_50'
p885
F89.48133785164163
sS'seg_55'
p886
F88.96608074866116
sS'seg_35'
p887
F91.26963635678621
sS'seg_30'
p888
F91.8160332950224
sS'seg_70'
p889
F87.48078765943899
sS'seg_15'
p890
F93.48851741546143
sS'seg_75'
p891
F87.41217977408135
sS'seg_10'
p892
F95.5349286928474
sS'seg_5'
p893
F95.51775041725361
sS'seg_0'
p894
F99.9915125233282
sS'seg_100'
p895
F84.9184142007641
sS'seg_45'
p896
F89.6753211948571
sS'seg_40'
p897
F90.47679634928545
sS'seg_80'
p898
F86.56604238410405
sg18
F6.216616988515626e+114
sS'seg_85'
p899
F86.69308789382623
sS'seg_25'
p900
F92.2444556642616
sS'seg_20'
p901
F92.95599398000255
sS'seg_60'
p902
F88.29143588426525
sS'seg_65'
p903
F88.01609440889861
ssI42
(dp904
S'seg_95'
p905
F124.18446283872329
sS'seg_90'
p906
F124.24957221194711
sS'seg_50'
p907
F125.99877928968733
sS'seg_55'
p908
F125.64372393098643
sS'seg_35'
p909
F127.7565879813956
sS'seg_30'
p910
F128.48167007540118
sS'seg_70'
p911
F124.84133981134717
sS'seg_15'
p912
F132.72940291650912
sS'seg_75'
p913
F124.64078352056251
sS'seg_10'
p914
F136.96119080635324
sS'seg_5'
p915
F138.4797077851371
sS'seg_0'
p916
F141.79402948552223
sS'seg_100'
p917
F124.1471897649615
sS'seg_45'
p918
F126.67660110268318
sS'seg_40'
p919
F126.74499367677103
sS'seg_80'
p920
F125.147647918765
sg18
F4515944722.86043
sS'seg_85'
p921
F124.34149894045508
sS'seg_25'
p922
F129.05322805134318
sS'seg_20'
p923
F140.8297464488811
sS'seg_60'
p924
F125.35690843829995
sS'seg_65'
p925
F125.07825075553251
ssI43
(dp926
S'seg_95'
p927
F168.6193776757749
sS'seg_90'
p928
F169.30184653583757
sS'seg_50'
p929
F167.6193907323066
sS'seg_55'
p930
F167.29456812133685
sS'seg_35'
p931
F168.61501516827704
sS'seg_30'
p932
F169.46196890836887
sS'seg_70'
p933
F166.58352336961684
sS'seg_15'
p934
F170.41897556291968
sS'seg_75'
p935
F167.99077058919025
sS'seg_10'
p936
F170.54861202842545
sS'seg_5'
p937
F170.8776923780776
sS'seg_0'
p938
F171.334031820068
sS'seg_100'
p939
F186.98584341236216
sS'seg_45'
p940
F168.00246934857879
sS'seg_40'
p941
F168.0386597493045
sS'seg_80'
p942
F166.01139861343205
sg18
F173.4388026098982
sS'seg_85'
p943
F168.60257496773545
sS'seg_25'
p944
F169.45822625267232
sS'seg_20'
p945
F169.58301272237773
sS'seg_60'
p946
F166.95100142021113
sS'seg_65'
p947
F167.80538651166611
ssI44
(dp948
S'seg_95'
p949
F39.61347167773563
sS'seg_90'
p950
F37.50324120521472
sS'seg_50'
p951
F34.02597751059092
sS'seg_55'
p952
F35.1299133404342
sS'seg_35'
p953
F34.17503620213627
sS'seg_30'
p954
F34.10095270665126
sS'seg_70'
p955
F33.898877538003276
sS'seg_15'
p956
F34.45158906235782
sS'seg_75'
p957
F33.698011761944926
sS'seg_10'
p958
F34.57342108935421
sS'seg_5'
p959
F34.796129226231926
sS'seg_0'
p960
F35.95025010394544
sS'seg_100'
p961
F40.57948679320338
sS'seg_45'
p962
F34.36413286503421
sS'seg_40'
p963
F34.80862397444359
sS'seg_80'
p964
F35.17078772510346
sg18
F9.8194612723154e+168
sS'seg_85'
p965
F36.727062839659965
sS'seg_25'
p966
F34.06948096559669
sS'seg_20'
p967
F34.1605057705493
sS'seg_60'
p968
F33.99587368202793
sS'seg_65'
p969
F34.06955463135379
ssI45
(dp970
S'seg_95'
p971
F84.58031046430389
sS'seg_90'
p972
F85.30183396426153
sS'seg_50'
p973
F85.78395973695446
sS'seg_55'
p974
F85.86110533257349
sS'seg_35'
p975
F86.77171593274485
sS'seg_30'
p976
F87.48037612393122
sS'seg_70'
p977
F85.20608415751724
sS'seg_15'
p978
F90.2818423126595
sS'seg_75'
p979
F84.28911681179196
sS'seg_10'
p980
F90.33013143152102
sS'seg_5'
p981
F90.60498199680457
sS'seg_0'
p982
F91.81222756384616
sS'seg_100'
p983
F83.4410029348186
sS'seg_45'
p984
F85.89504448598747
sS'seg_40'
p985
F86.02171536779458
sS'seg_80'
p986
F84.40728608969172
sg18
F329.8754508440294
sS'seg_85'
p987
F84.49904980294436
sS'seg_25'
p988
F88.4359083428357
sS'seg_20'
p989
F89.36394049061269
sS'seg_60'
p990
F84.96345437390133
sS'seg_65'
p991
F84.57022309060363
ssI46
(dp992
S'seg_95'
p993
F68.43204643125384
sS'seg_90'
p994
F69.58383744741612
sS'seg_50'
p995
F83.57307838762345
sS'seg_55'
p996
F70.43261834925201
sS'seg_35'
p997
F76.91107714934074
sS'seg_30'
p998
F100.9309098658176
sS'seg_70'
p999
F71.19603961859022
sS'seg_15'
p1000
F94.97383261858619
sS'seg_75'
p1001
F68.09403748493449
sS'seg_10'
p1002
F115.22032270953423
sS'seg_5'
p1003
F126.6742573646507
sS'seg_0'
p1004
F229.37965134854977
sS'seg_100'
p1005
F72.56496045960544
sS'seg_45'
p1006
F79.91888961444002
sS'seg_40'
p1007
F89.07761443078527
sS'seg_80'
p1008
F70.7178235673004
sg18
F1.7063852914853967e+194
sS'seg_85'
p1009
F70.94443861706432
sS'seg_25'
p1010
F107.81189455420683
sS'seg_20'
p1011
F84.95531355757379
sS'seg_60'
p1012
F74.96483154632524
sS'seg_65'
p1013
F72.07643855601047
ssI47
(dp1014
S'seg_95'
p1015
F693.0020533577703
sS'seg_90'
p1016
F962.2654028179116
sS'seg_50'
p1017
F53293.33643372818
sS'seg_55'
p1018
F18608.871768013843
sS'seg_35'
p1019
F624257.3877375873
sS'seg_30'
p1020
F814808.0652234234
sS'seg_70'
p1021
F3835.617962898274
sS'seg_15'
p1022
F35138874054697.97
sS'seg_75'
p1023
F1679.4159881754513
sS'seg_10'
p1024
F9.279907267163685e+16
sS'seg_5'
p1025
F4.6176736382939104e+17
sS'seg_0'
p1026
F1.9586454573890903e+23
sS'seg_100'
p1027
F643.2921395259111
sS'seg_45'
p1028
F201288.449744366
sS'seg_40'
p1029
F325269.45451854763
sS'seg_80'
p1030
F1243.9612697215302
sg18
F1.655953261723734e+175
sS'seg_85'
p1031
F1040.8501437080672
sS'seg_25'
p1032
F3628738.6686175107
sS'seg_20'
p1033
F8183511818.539522
sS'seg_60'
p1034
F11078.622933802846
sS'seg_65'
p1035
F3495.9973898903563
ssI48
(dp1036
S'seg_95'
p1037
F49.67472090366208
sS'seg_90'
p1038
F41.43639014454712
sS'seg_50'
p1039
F91.71490637992173
sS'seg_55'
p1040
F40.60526342972968
sS'seg_35'
p1041
F29.21311445338863
sS'seg_30'
p1042
F27.63164428170262
sS'seg_70'
p1043
F39.4337473038179
sS'seg_15'
p1044
F28.741184080540556
sS'seg_75'
p1045
F50.10360828545536
sS'seg_10'
p1046
F29.707387963852238
sS'seg_5'
p1047
F29.54060674396129
sS'seg_0'
p1048
F31.323610366218794
sS'seg_100'
p1049
F43.25625512765499
sS'seg_45'
p1050
F47.6758224219396
sS'seg_40'
p1051
F61.980623485733396
sS'seg_80'
p1052
F41.72121998761713
sg18
F57.55868578130449
sS'seg_85'
p1053
F43.25838407184994
sS'seg_25'
p1054
F27.739360376245155
sS'seg_20'
p1055
F28.315079613359615
sS'seg_60'
p1056
F46.115570066829655
sS'seg_65'
p1057
F44.09188503745825
ss.