(dp0
I1
(dp1
S'seg_95'
p2
F129.42554490610888
sS'seg_90'
p3
F124.36897735989763
sS'seg_50'
p4
F141.8158368313614
sS'seg_55'
p5
F136.4191833339266
sS'seg_35'
p6
F159.0586880376706
sS'seg_30'
p7
F161.81604881877297
sS'seg_70'
p8
F131.91016352063045
sS'seg_15'
p9
F187.42705896402674
sS'seg_75'
p10
F128.72709313320155
sS'seg_10'
p11
F189.63011259546147
sS'seg_5'
p12
F207.92348361587588
sS'seg_0'
p13
F221.98156333180458
sS'seg_100'
p14
F124.94413057673515
sS'seg_45'
p15
F148.30293648929575
sS'seg_40'
p16
F152.3420553027415
sS'seg_80'
p17
F124.7316095474669
sS'sw'
p18
F234.71847092058408
sS'seg_85'
p19
F131.38963460953784
sS'seg_25'
p20
F165.29072923868273
sS'seg_20'
p21
F171.8093551958371
sS'seg_60'
p22
F132.91490139136488
sS'seg_65'
p23
F135.17070076336375
ssI2
(dp24
S'seg_95'
p25
F125.59334352534025
sS'seg_90'
p26
F125.152777046818
sS'seg_50'
p27
F130.1816312532273
sS'seg_55'
p28
F131.78734657495224
sS'seg_35'
p29
F131.51447227444723
sS'seg_30'
p30
F133.53066074486622
sS'seg_70'
p31
F126.08059753855653
sS'seg_15'
p32
F145.65380337968082
sS'seg_75'
p33
F125.96848195382185
sS'seg_10'
p34
F161.46609343080695
sS'seg_5'
p35
F808.5319090077586
sS'seg_0'
p36
F1306.3114412196624
sS'seg_100'
p37
F124.83702397540739
sS'seg_45'
p38
F130.9926944384347
sS'seg_40'
p39
F131.99159769849012
sS'seg_80'
p40
F125.4344386184786
sg18
F152.1652090851876
sS'seg_85'
p41
F125.43995414560864
sS'seg_25'
p42
F3088.3250150429717
sS'seg_20'
p43
F143.8181665045682
sS'seg_60'
p44
F127.09549849472191
sS'seg_65'
p45
F127.5536847807919
ssI3
(dp46
S'seg_95'
p47
F182.1644591094444
sS'seg_90'
p48
F181.2061231237242
sS'seg_50'
p49
F207.68509679626055
sS'seg_55'
p50
F206.84590454244093
sS'seg_35'
p51
F223.52738009221926
sS'seg_30'
p52
F224.3639523994484
sS'seg_70'
p53
F190.84662777737918
sS'seg_15'
p54
F228.65886340439937
sS'seg_75'
p55
F187.7904581864473
sS'seg_10'
p56
F227.28402365679113
sS'seg_5'
p57
F226.75237610991235
sS'seg_0'
p58
F226.99495143575624
sS'seg_100'
p59
F184.33448969304683
sS'seg_45'
p60
F211.04443678275646
sS'seg_40'
p61
F221.23900400502916
sS'seg_80'
p62
F184.15952712232024
sg18
F202.72433013123438
sS'seg_85'
p63
F183.10657765739376
sS'seg_25'
p64
F228.4297979108374
sS'seg_20'
p65
F228.154014321767
sS'seg_60'
p66
F199.1915691757122
sS'seg_65'
p67
F196.12151697563692
ssI4
(dp68
S'seg_95'
p69
F1307633255.0070748
sS'seg_90'
p70
F1377576019.9431522
sS'seg_50'
p71
F523.7418486132008
sS'seg_55'
p72
F552.3418507586908
sS'seg_35'
p73
F430.3032588994215
sS'seg_30'
p74
F427.4862183326235
sS'seg_70'
p75
F535.7465675940759
sS'seg_15'
p76
F390.52821139486014
sS'seg_75'
p77
F4037.0572969518944
sS'seg_10'
p78
F379.9461448236817
sS'seg_5'
p79
F403.86590709581856
sS'seg_0'
p80
F399.9526615852375
sS'seg_100'
p81
F4481696953.772482
sS'seg_45'
p82
F489.02898257497066
sS'seg_40'
p83
F484.1801460258971
sS'seg_80'
p84
F2182870205.5951295
sg18
F3960895.43928582
sS'seg_85'
p85
F1874580970.5237777
sS'seg_25'
p86
F389.6405674535008
sS'seg_20'
p87
F376.802031163738
sS'seg_60'
p88
F547.2480874299466
sS'seg_65'
p89
F520.1163893005207
ssI5
(dp90
S'seg_95'
p91
F2.0274790456796874e+35
sS'seg_90'
p92
F550.3086155503457
sS'seg_50'
p93
F391.18549830681206
sS'seg_55'
p94
F395.1269078437248
sS'seg_35'
p95
F385.38439923588174
sS'seg_30'
p96
F382.97158027393897
sS'seg_70'
p97
F409.25966311218724
sS'seg_15'
p98
F381.4770658273914
sS'seg_75'
p99
F422.1978815361091
sS'seg_10'
p100
F378.3872087038062
sS'seg_5'
p101
F379.78210439690884
sS'seg_0'
p102
F380.68513667543914
sS'seg_100'
p103
F2.0718890824068088e+35
sS'seg_45'
p104
F390.90052370206246
sS'seg_40'
p105
F387.08837813851505
sS'seg_80'
p106
F438.5523210409322
sg18
F363.2814204851455
sS'seg_85'
p107
F465.99385600550266
sS'seg_25'
p108
F382.9720709344457
sS'seg_20'
p109
F384.15555272465144
sS'seg_60'
p110
F399.90268637573473
sS'seg_65'
p111
F402.7447100617604
ssI6
(dp112
S'seg_95'
p113
F106.74555401660889
sS'seg_90'
p114
F99.18853057984731
sS'seg_50'
p115
F100.19566360891568
sS'seg_55'
p116
F92.7668296904089
sS'seg_35'
p117
F115.46897485400568
sS'seg_30'
p118
F129.14686573173432
sS'seg_70'
p119
F90.96788411156304
sS'seg_15'
p120
F150.2458900355802
sS'seg_75'
p121
F91.44927400185603
sS'seg_10'
p122
F169.7714176946942
sS'seg_5'
p123
F181.04512781983692
sS'seg_0'
p124
F191.64410026344297
sS'seg_100'
p125
F119.64401091749906
sS'seg_45'
p126
F105.31639554002633
sS'seg_40'
p127
F105.66165341270641
sS'seg_80'
p128
F94.90134973822909
sg18
F9.600908923679509e+55
sS'seg_85'
p129
F95.23108449863902
sS'seg_25'
p130
F132.89021161825212
sS'seg_20'
p131
F143.11244322066693
sS'seg_60'
p132
F91.07908215804466
sS'seg_65'
p133
F91.63260125961594
ssI7
(dp134
S'seg_95'
p135
F89545.96267424955
sS'seg_90'
p136
F455083.6850147721
sS'seg_50'
p137
F250.66786942006348
sS'seg_55'
p138
F61465.27239076793
sS'seg_35'
p139
F216.93494549259836
sS'seg_30'
p140
F220.78450899583945
sS'seg_70'
p141
F1369771.415580193
sS'seg_15'
p142
F212.04839668984897
sS'seg_75'
p143
F18990598.509215638
sS'seg_10'
p144
F210.8466239076658
sS'seg_5'
p145
F228.65731638508137
sS'seg_0'
p146
F216.81754160981228
sS'seg_100'
p147
F56192.76784741493
sS'seg_45'
p148
F218.9954098161917
sS'seg_40'
p149
F218.5128340427003
sS'seg_80'
p150
F54044.41528129743
sg18
F26698022.671883844
sS'seg_85'
p151
F56765.42477671881
sS'seg_25'
p152
F214.15655189942436
sS'seg_20'
p153
F211.83499260793755
sS'seg_60'
p154
F244822.540629551
sS'seg_65'
p155
F1461744.1542021488
ssI8
(dp156
S'seg_95'
p157
F126.75714498694461
sS'seg_90'
p158
F120.48144766011315
sS'seg_50'
p159
F127.42433378659794
sS'seg_55'
p160
F126.2519499624151
sS'seg_35'
p161
F140.35813673426415
sS'seg_30'
p162
F141.63068131907366
sS'seg_70'
p163
F119.83389695951743
sS'seg_15'
p164
F158.81425539581642
sS'seg_75'
p165
F119.08781564870908
sS'seg_10'
p166
F165.05813591405587
sS'seg_5'
p167
F171.71980616865403
sS'seg_0'
p168
F185.35835768225465
sS'seg_100'
p169
F122.30313109005536
sS'seg_45'
p170
F131.11736305578376
sS'seg_40'
p171
F133.8392218639901
sS'seg_80'
p172
F120.66749840371483
sg18
F179.76434622872173
sS'seg_85'
p173
F118.4700226788224
sS'seg_25'
p174
F147.3256409229363
sS'seg_20'
p175
F152.62906286315254
sS'seg_60'
p176
F125.78921951464284
sS'seg_65'
p177
F122.04510689593515
ssI9
(dp178
S'seg_95'
p179
F360.77434905827124
sS'seg_90'
p180
F357.34792347133964
sS'seg_50'
p181
F358.10621603456315
sS'seg_55'
p182
F356.3928535341542
sS'seg_35'
p183
F362.0172356897663
sS'seg_30'
p184
F361.88419586573804
sS'seg_70'
p185
F354.4896600015421
sS'seg_15'
p186
F370.094335041785
sS'seg_75'
p187
F353.78167214103433
sS'seg_10'
p188
F373.2298755784442
sS'seg_5'
p189
F390.2857397164936
sS'seg_0'
p190
F406.1666699146323
sS'seg_100'
p191
F382.2063985965711
sS'seg_45'
p192
F358.3673011535296
sS'seg_40'
p193
F359.7708244809429
sS'seg_80'
p194
F353.9234045243002
sg18
F5.5077236126948464e+113
sS'seg_85'
p195
F354.25563309663056
sS'seg_25'
p196
F364.3943559646926
sS'seg_20'
p197
F369.2616108714667
sS'seg_60'
p198
F356.1530417919865
sS'seg_65'
p199
F355.3568956695216
ssI10
(dp200
S'seg_95'
p201
F61.51754937508391
sS'seg_90'
p202
F61.43188487115795
sS'seg_50'
p203
F80.45626943999567
sS'seg_55'
p204
F78.60343196416832
sS'seg_35'
p205
F83.97380516782063
sS'seg_30'
p206
F85.46310326919794
sS'seg_70'
p207
F69.60803097491397
sS'seg_15'
p208
F89.56299699115645
sS'seg_75'
p209
F65.7135247831869
sS'seg_10'
p210
F90.89606150396628
sS'seg_5'
p211
F91.90557255138619
sS'seg_0'
p212
F91.35703418126397
sS'seg_100'
p213
F60.07132340277826
sS'seg_45'
p214
F82.90074736221104
sS'seg_40'
p215
F84.92564765844725
sS'seg_80'
p216
F63.57119156200103
sg18
F159.13654934285563
sS'seg_85'
p217
F63.26481269578012
sS'seg_25'
p218
F87.15738066315444
sS'seg_20'
p219
F87.49359006095574
sS'seg_60'
p220
F79.8022090826453
sS'seg_65'
p221
F73.35762575290872
ssI11
(dp222
S'seg_95'
p223
F53.04538797377656
sS'seg_90'
p224
F48.066054612942
sS'seg_50'
p225
F50.809041548240444
sS'seg_55'
p226
F52.855398947316395
sS'seg_35'
p227
F55.042309583141524
sS'seg_30'
p228
F55.64529507432222
sS'seg_70'
p229
F52.66045422431843
sS'seg_15'
p230
F62.32313251746184
sS'seg_75'
p231
F47.77935435009029
sS'seg_10'
p232
F64.9600124575042
sS'seg_5'
p233
F67.01598458434162
sS'seg_0'
p234
F69.41423207561584
sS'seg_100'
p235
F47.53905544915688
sS'seg_45'
p236
F52.59553472300903
sS'seg_40'
p237
F55.24110670080121
sS'seg_80'
p238
F48.041785302792455
sg18
F44.57740047017643
sS'seg_85'
p239
F46.44605395147537
sS'seg_25'
p240
F58.820284306850866
sS'seg_20'
p241
F61.061730111793096
sS'seg_60'
p242
F49.45018303653631
sS'seg_65'
p243
F48.34792241302485
ssI12
(dp244
S'seg_95'
p245
F55.34696107155837
sS'seg_90'
p246
F54.71863327250124
sS'seg_50'
p247
F53.866856109254016
sS'seg_55'
p248
F53.34586449135129
sS'seg_35'
p249
F54.44900019571935
sS'seg_30'
p250
F54.62410584071223
sS'seg_70'
p251
F53.307412780817444
sS'seg_15'
p252
F57.91480761368513
sS'seg_75'
p253
F53.530459466707455
sS'seg_10'
p254
F69.10882256247444
sS'seg_5'
p255
F68.23624196672395
sS'seg_0'
p256
F70.48312784608345
sS'seg_100'
p257
F55.83220419615189
sS'seg_45'
p258
F182.6112578009595
sS'seg_40'
p259
F53.84927099076394
sS'seg_80'
p260
F53.86006608169938
sg18
F6721.855259006327
sS'seg_85'
p261
F54.12523781386527
sS'seg_25'
p262
F64.59153250925334
sS'seg_20'
p263
F79.70160812936184
sS'seg_60'
p264
F53.269187034322854
sS'seg_65'
p265
F53.31313805790516
ssI13
(dp266
S'seg_95'
p267
F2456.7715880099777
sS'seg_90'
p268
F343.2180843589176
sS'seg_50'
p269
F211.70853803936978
sS'seg_55'
p270
F206.44886810045483
sS'seg_35'
p271
F231.87679047945932
sS'seg_30'
p272
F241.5826413971109
sS'seg_70'
p273
F195.8292424040583
sS'seg_15'
p274
F273.70009964363317
sS'seg_75'
p275
F195.29067790002915
sS'seg_10'
p276
F279.1377993560435
sS'seg_5'
p277
F314.88980279648797
sS'seg_0'
p278
F344.3341245952005
sS'seg_100'
p279
F2952.5558564634234
sS'seg_45'
p280
F216.80313227457887
sS'seg_40'
p281
F223.06318330115846
sS'seg_80'
p282
F196.13806728735662
sg18
F1496.7995618402092
sS'seg_85'
p283
F195.31356043565117
sS'seg_25'
p284
F244.69259257212167
sS'seg_20'
p285
F266.80539467506253
sS'seg_60'
p286
F200.15525287493273
sS'seg_65'
p287
F199.0494158614731
ssI14
(dp288
S'seg_95'
p289
F124.3764669220894
sS'seg_90'
p290
F124.60280800903456
sS'seg_50'
p291
F126.49450809443438
sS'seg_55'
p292
F126.14678961948417
sS'seg_35'
p293
F129.471739954118
sS'seg_30'
p294
F131.09921487894226
sS'seg_70'
p295
F125.35671230738205
sS'seg_15'
p296
F132.25968395875697
sS'seg_75'
p297
F126.4114567094628
sS'seg_10'
p298
F134.7855606094776
sS'seg_5'
p299
F136.5399285236487
sS'seg_0'
p300
F141.2870294829118
sS'seg_100'
p301
F124.32622668736713
sS'seg_45'
p302
F128.17515924841058
sS'seg_40'
p303
F129.69571246326333
sS'seg_80'
p304
F125.16863118759332
sg18
F141.11762836331624
sS'seg_85'
p305
F124.77838381379968
sS'seg_25'
p306
F131.80985102096957
sS'seg_20'
p307
F132.62907659234128
sS'seg_60'
p308
F125.85579613151046
sS'seg_65'
p309
F126.06597622559677
ssI15
(dp310
S'seg_95'
p311
F50.242651364177576
sS'seg_90'
p312
F49.99486749862384
sS'seg_50'
p313
F53.771111504700286
sS'seg_55'
p314
F52.297595794562405
sS'seg_35'
p315
F55.95524466676401
sS'seg_30'
p316
F56.89597873511285
sS'seg_70'
p317
F50.49744463548428
sS'seg_15'
p318
F62.23605895186199
sS'seg_75'
p319
F50.86860542280826
sS'seg_10'
p320
F63.84192883882638
sS'seg_5'
p321
F63.01495168446604
sS'seg_0'
p322
F64.11182046315119
sS'seg_100'
p323
F48.976529399080285
sS'seg_45'
p324
F55.542207223861
sS'seg_40'
p325
F57.61481993330837
sS'seg_80'
p326
F50.43802991634573
sg18
F6.903379617824797e+165
sS'seg_85'
p327
F50.72881313754939
sS'seg_25'
p328
F437.84271832921587
sS'seg_20'
p329
F67.562357465713
sS'seg_60'
p330
F51.86080070728697
sS'seg_65'
p331
F53.364820902971736
ssI16
(dp332
S'seg_95'
p333
F127.36208801721821
sS'seg_90'
p334
F128.92356410282136
sS'seg_50'
p335
F151.96229542993768
sS'seg_55'
p336
F146.39671805604547
sS'seg_35'
p337
F166.77162808843923
sS'seg_30'
p338
F168.16775158082427
sS'seg_70'
p339
F125.51276241461971
sS'seg_15'
p340
F183.34137509279518
sS'seg_75'
p341
F124.78780476134185
sS'seg_10'
p342
F186.7771777147965
sS'seg_5'
p343
F193.76322923689222
sS'seg_0'
p344
F218.941357323264
sS'seg_100'
p345
F175.71589032346566
sS'seg_45'
p346
F157.65341946339828
sS'seg_40'
p347
F159.87803813018164
sS'seg_80'
p348
F120.83490500625689
sg18
F2.1249767627304064e+22
sS'seg_85'
p349
F124.16737996627653
sS'seg_25'
p350
F171.5391326262702
sS'seg_20'
p351
F179.03780581609604
sS'seg_60'
p352
F141.69116216418305
sS'seg_65'
p353
F132.0416141526349
ssI17
(dp354
S'seg_95'
p355
F63.0760662750626
sS'seg_90'
p356
F62.64987277897611
sS'seg_50'
p357
F61.961783943529745
sS'seg_55'
p358
F61.37669055431328
sS'seg_35'
p359
F65.19469095922697
sS'seg_30'
p360
F66.38637411955358
sS'seg_70'
p361
F61.11806541451324
sS'seg_15'
p362
F76.53564103091719
sS'seg_75'
p363
F61.998934502950775
sS'seg_10'
p364
F79.30966081928823
sS'seg_5'
p365
F93.14895037104999
sS'seg_0'
p366
F96.47474128237482
sS'seg_100'
p367
F64.85842639411612
sS'seg_45'
p368
F62.23015371365532
sS'seg_40'
p369
F66.29222144662212
sS'seg_80'
p370
F61.84365467383693
sg18
F1.897564710460477e+45
sS'seg_85'
p371
F62.802753884836456
sS'seg_25'
p372
F70.3329993506229
sS'seg_20'
p373
F72.20107859513072
sS'seg_60'
p374
F64.18023123089031
sS'seg_65'
p375
F60.9658011965922
ssI18
(dp376
S'seg_95'
p377
F142.6309404492459
sS'seg_90'
p378
F141.0440628687826
sS'seg_50'
p379
F52.7074688508019
sS'seg_55'
p380
F52.9713331845948
sS'seg_35'
p381
F54.195448089968224
sS'seg_30'
p382
F55.0418988285259
sS'seg_70'
p383
F54.04443319059425
sS'seg_15'
p384
F64.25782273670917
sS'seg_75'
p385
F53.903359642976696
sS'seg_10'
p386
F63.62261575337844
sS'seg_5'
p387
F65.32548480081962
sS'seg_0'
p388
F74.59983527616183
sS'seg_100'
p389
F152.13860657744618
sS'seg_45'
p390
F52.93051144766539
sS'seg_40'
p391
F52.57024005513589
sS'seg_80'
p392
F54.89861520039475
sg18
F1.562722125528539e+158
sS'seg_85'
p393
F76.41397129986271
sS'seg_25'
p394
F63.93688639117702
sS'seg_20'
p395
F56.564019152998206
sS'seg_60'
p396
F53.22523573276637
sS'seg_65'
p397
F53.62143593932158
ssI19
(dp398
S'seg_95'
p399
F169.306871331501
sS'seg_90'
p400
F164.09671950946694
sS'seg_50'
p401
F160.63354867859454
sS'seg_55'
p402
F158.05827789977292
sS'seg_35'
p403
F165.47570194095766
sS'seg_30'
p404
F167.31470599387714
sS'seg_70'
p405
F158.18221076528854
sS'seg_15'
p406
F179.5538500321206
sS'seg_75'
p407
F156.83092537153988
sS'seg_10'
p408
F184.0317323815274
sS'seg_5'
p409
F189.30740234178094
sS'seg_0'
p410
F199.48927002315017
sS'seg_100'
p411
F170.69439887633075
sS'seg_45'
p412
F160.65534354685687
sS'seg_40'
p413
F161.51877276199596
sS'seg_80'
p414
F158.6946177188094
sg18
F874.2517955869221
sS'seg_85'
p415
F161.70128512459362
sS'seg_25'
p416
F169.77361063216892
sS'seg_20'
p417
F172.4965566643512
sS'seg_60'
p418
F156.46834886360313
sS'seg_65'
p419
F160.13275118655466
ssI20
(dp420
S'seg_95'
p421
F49.47270485702903
sS'seg_90'
p422
F49.01593276326084
sS'seg_50'
p423
F49.14070183901671
sS'seg_55'
p424
F49.14990328848562
sS'seg_35'
p425
F51.33190031490004
sS'seg_30'
p426
F50.034579887227466
sS'seg_70'
p427
F47.79936481368786
sS'seg_15'
p428
F52.47447222573294
sS'seg_75'
p429
F47.797155357173914
sS'seg_10'
p430
F55.98120165639318
sS'seg_5'
p431
F56.4510582642048
sS'seg_0'
p432
F56.74409103391692
sS'seg_100'
p433
F48.65359270129717
sS'seg_45'
p434
F48.24286551381067
sS'seg_40'
p435
F49.965426341638434
sS'seg_80'
p436
F48.16159176576753
sg18
F196.6516858104505
sS'seg_85'
p437
F48.548956728018254
sS'seg_25'
p438
F53.53568025912189
sS'seg_20'
p439
F53.60078122220663
sS'seg_60'
p440
F47.76062669916836
sS'seg_65'
p441
F47.88808455601556
ssI21
(dp442
S'seg_95'
p443
F24.129180695885104
sS'seg_90'
p444
F28.734977732069005
sS'seg_50'
p445
F33.79721074401523
sS'seg_55'
p446
F30.809185625651963
sS'seg_35'
p447
F38.926079757949424
sS'seg_30'
p448
F48.92949709126214
sS'seg_70'
p449
F30.478609304603747
sS'seg_15'
p450
F54.53144617493874
sS'seg_75'
p451
F604408965223846.6
sS'seg_10'
p452
F6984.460590988795
sS'seg_5'
p453
F24077788.385600425
sS'seg_0'
p454
F79.97832071449051
sS'seg_100'
p455
F27.79579395258262
sS'seg_45'
p456
F35.549293167058224
sS'seg_40'
p457
F18147.39908652244
sS'seg_80'
p458
F28.58209922532857
sg18
F1.1669573954125936e+138
sS'seg_85'
p459
F30.26736367851155
sS'seg_25'
p460
F48.48281797755455
sS'seg_20'
p461
F52.21814458290045
sS'seg_60'
p462
F30.77976402060829
sS'seg_65'
p463
F499394402028885.0
ssI22
(dp464
S'seg_95'
p465
F81.88488607862168
sS'seg_90'
p466
F61.907304949697505
sS'seg_50'
p467
F62.906066733512475
sS'seg_55'
p468
F60.40051351105851
sS'seg_35'
p469
F65.11377861981457
sS'seg_30'
p470
F84.01342814116177
sS'seg_70'
p471
F61.684906745744605
sS'seg_15'
p472
F90.21719778829417
sS'seg_75'
p473
F93.41817654899288
sS'seg_10'
p474
F101.66193174661754
sS'seg_5'
p475
F107.2559422479547
sS'seg_0'
p476
F213.2461866161801
sS'seg_100'
p477
F68.05003576679985
sS'seg_45'
p478
F65.31195979753161
sS'seg_40'
p479
F69.69375249479728
sS'seg_80'
p480
F62.51747460955611
sg18
F1.862348014820005e+65
sS'seg_85'
p481
F73.51456742415921
sS'seg_25'
p482
F67.61935321478252
sS'seg_20'
p483
F79.74117499101469
sS'seg_60'
p484
F76.81679864681038
sS'seg_65'
p485
F59.786051073066915
ssI23
(dp486
S'seg_95'
p487
F123.28926442847418
sS'seg_90'
p488
F123.61557622625801
sS'seg_50'
p489
F136.89619825282293
sS'seg_55'
p490
F134.25192746232523
sS'seg_35'
p491
F150.0396808488111
sS'seg_30'
p492
F152.5790371411968
sS'seg_70'
p493
F128.14131416830696
sS'seg_15'
p494
F172.5217180964368
sS'seg_75'
p495
F125.9920647587971
sS'seg_10'
p496
F188.3816221321162
sS'seg_5'
p497
F197.3307479313275
sS'seg_0'
p498
F207.11629282799703
sS'seg_100'
p499
F123.13281215594755
sS'seg_45'
p500
F144.00767038312318
sS'seg_40'
p501
F147.0606176948626
sS'seg_80'
p502
F123.939090993446
sg18
F7.412916318372955e+37
sS'seg_85'
p503
F122.67791854686489
sS'seg_25'
p504
F158.7220974920766
sS'seg_20'
p505
F165.1322887153369
sS'seg_60'
p506
F130.2620261569073
sS'seg_65'
p507
F131.8557581496862
ssI24
(dp508
S'seg_95'
p509
F221.19105246177477
sS'seg_90'
p510
F214.87051954116487
sS'seg_50'
p511
F210.79672704430868
sS'seg_55'
p512
F210.18329117880586
sS'seg_35'
p513
F218.41824972161263
sS'seg_30'
p514
F221.93669560473117
sS'seg_70'
p515
F208.3530663736304
sS'seg_15'
p516
F242.26682882418785
sS'seg_75'
p517
F208.9131273866764
sS'seg_10'
p518
F251.0128923711215
sS'seg_5'
p519
F261.7362611334337
sS'seg_0'
p520
F268.98091642408525
sS'seg_100'
p521
F233.82955816051827
sS'seg_45'
p522
F212.6847236518851
sS'seg_40'
p523
F215.50465642868693
sS'seg_80'
p524
F209.86129034437363
sg18
F438.3568878466605
sS'seg_85'
p525
F211.92700915693476
sS'seg_25'
p526
F226.3568588805112
sS'seg_20'
p527
F235.79922862713016
sS'seg_60'
p528
F209.02414272275624
sS'seg_65'
p529
F208.57197962267156
ssI25
(dp530
S'seg_95'
p531
F43.677808642811236
sS'seg_90'
p532
F43.89407111932276
sS'seg_50'
p533
F47.04741320749148
sS'seg_55'
p534
F46.49008123869842
sS'seg_35'
p535
F49.67970792125854
sS'seg_30'
p536
F50.25049954083896
sS'seg_70'
p537
F44.98709521873051
sS'seg_15'
p538
F54.602554143397285
sS'seg_75'
p539
F44.66276306288211
sS'seg_10'
p540
F56.47089899814479
sS'seg_5'
p541
F57.7101439776734
sS'seg_0'
p542
F58.800272408608905
sS'seg_100'
p543
F43.673100544355385
sS'seg_45'
p544
F48.13366051692576
sS'seg_40'
p545
F48.7333817250382
sS'seg_80'
p546
F44.44509543293262
sg18
F16908289215868.27
sS'seg_85'
p547
F44.02940877725496
sS'seg_25'
p548
F51.70233250887685
sS'seg_20'
p549
F53.04216258182189
sS'seg_60'
p550
F46.25942226331709
sS'seg_65'
p551
F45.530459183602424
ssI26
(dp552
S'seg_95'
p553
F120.95264747053659
sS'seg_90'
p554
F123.08437392561476
sS'seg_50'
p555
F143.71317923221764
sS'seg_55'
p556
F140.62352619048778
sS'seg_35'
p557
F154.43832499815764
sS'seg_30'
p558
F157.85598267922416
sS'seg_70'
p559
F128.28917570396712
sS'seg_15'
p560
F167.1033468111845
sS'seg_75'
p561
F127.88816849814289
sS'seg_10'
p562
F172.0554143075973
sS'seg_5'
p563
F173.09060199471077
sS'seg_0'
p564
F186.32358025575982
sS'seg_100'
p565
F126.35443823031571
sS'seg_45'
p566
F146.9175812229497
sS'seg_40'
p567
F149.32919889372096
sS'seg_80'
p568
F123.97103149640304
sg18
F132.85113418570344
sS'seg_85'
p569
F123.84054486084145
sS'seg_25'
p570
F159.64141848475728
sS'seg_20'
p571
F162.097906421902
sS'seg_60'
p572
F137.17637399762677
sS'seg_65'
p573
F133.07094526554823
ssI27
(dp574
S'seg_95'
p575
F70.70207740343133
sS'seg_90'
p576
F71.01771476377516
sS'seg_50'
p577
F76.91461992404837
sS'seg_55'
p578
F72.79237893337529
sS'seg_35'
p579
F89.02506606478455
sS'seg_30'
p580
F91.67581019466441
sS'seg_70'
p581
F70.78337134356053
sS'seg_15'
p582
F101.27089976673359
sS'seg_75'
p583
F70.3636716240961
sS'seg_10'
p584
F110.62832671825069
sS'seg_5'
p585
F113.75649772953643
sS'seg_0'
p586
F120.72769794131413
sS'seg_100'
p587
F71.2876870283727
sS'seg_45'
p588
F78.94711740585137
sS'seg_40'
p589
F83.52136245603815
sS'seg_80'
p590
F70.47507632231677
sg18
F78326.8204699383
sS'seg_85'
p591
F70.79808487290704
sS'seg_25'
p592
F93.35706230995874
sS'seg_20'
p593
F101.89203405404568
sS'seg_60'
p594
F72.35786684366482
sS'seg_65'
p595
F71.25584056989562
ssI28
(dp596
S'seg_95'
p597
F123.23109181509324
sS'seg_90'
p598
F123.60141481171249
sS'seg_50'
p599
F129.6969833428509
sS'seg_55'
p600
F129.01302987374976
sS'seg_35'
p601
F135.73848083697527
sS'seg_30'
p602
F136.42883708116457
sS'seg_70'
p603
F126.53096594471542
sS'seg_15'
p604
F143.0758787865741
sS'seg_75'
p605
F125.70819531027121
sS'seg_10'
p606
F145.5583641286529
sS'seg_5'
p607
F149.18564056337905
sS'seg_0'
p608
F151.48057543071008
sS'seg_100'
p609
F123.20304041995959
sS'seg_45'
p610
F131.85690099234984
sS'seg_40'
p611
F133.0438626710235
sS'seg_80'
p612
F124.9279605799591
sg18
F165.89470238109394
sS'seg_85'
p613
F123.94909486542909
sS'seg_25'
p614
F138.16583637515743
sS'seg_20'
p615
F139.96056569929345
sS'seg_60'
p616
F128.22536047855846
sS'seg_65'
p617
F126.98433249737442
ssI29
(dp618
S'seg_95'
p619
F1.1063513084326913e+31
sS'seg_90'
p620
F1.0673648022042812e+31
sS'seg_50'
p621
F253.07859267682207
sS'seg_55'
p622
F254.13638206544238
sS'seg_35'
p623
F251.94165568745566
sS'seg_30'
p624
F248.33360610387825
sS'seg_70'
p625
F258.6991451316055
sS'seg_15'
p626
F248.6896879915405
sS'seg_75'
p627
F263.4588057846593
sS'seg_10'
p628
F250.09540947842962
sS'seg_5'
p629
F248.67704596173309
sS'seg_0'
p630
F249.48548317924988
sS'seg_100'
p631
F1.122231643728914e+31
sS'seg_45'
p632
F249.7853732078408
sS'seg_40'
p633
F248.36839986395768
sS'seg_80'
p634
F277.02220885570176
sg18
F1570.4562855623215
sS'seg_85'
p635
F2.118635970247749e+30
sS'seg_25'
p636
F250.341768090101
sS'seg_20'
p637
F248.5006189273748
sS'seg_60'
p638
F254.7706729930823
sS'seg_65'
p639
F257.7367882087482
ssI30
(dp640
S'seg_95'
p641
F97.61926468646331
sS'seg_90'
p642
F95.49718672834966
sS'seg_50'
p643
F91.81238504633907
sS'seg_55'
p644
F91.55218423108208
sS'seg_35'
p645
F94.79502076730334
sS'seg_30'
p646
F96.20077526041216
sS'seg_70'
p647
F90.41764050604124
sS'seg_15'
p648
F101.18807399138434
sS'seg_75'
p649
F90.7400639857487
sS'seg_10'
p650
F101.8928685911709
sS'seg_5'
p651
F105.13069729393408
sS'seg_0'
p652
F108.1302484055258
sS'seg_100'
p653
F99.40370313246576
sS'seg_45'
p654
F92.07703292869745
sS'seg_40'
p655
F93.83361774085725
sS'seg_80'
p656
F91.75132168659202
sg18
F104.40377080551954
sS'seg_85'
p657
F92.77227986184347
sS'seg_25'
p658
F97.06855485600117
sS'seg_20'
p659
F98.121048433912
sS'seg_60'
p660
F91.110059666684
sS'seg_65'
p661
F90.48641526499253
ssI31
(dp662
S'seg_95'
p663
F172.84345127616822
sS'seg_90'
p664
F172.27451604641982
sS'seg_50'
p665
F181.53799607334076
sS'seg_55'
p666
F178.73248493272922
sS'seg_35'
p667
F185.78262783032108
sS'seg_30'
p668
F187.31181895540104
sS'seg_70'
p669
F175.12720366338368
sS'seg_15'
p670
F194.6688346775442
sS'seg_75'
p671
F173.55698942497287
sS'seg_10'
p672
F196.33438877120625
sS'seg_5'
p673
F197.3997622291783
sS'seg_0'
p674
F198.28722835357308
sS'seg_100'
p675
F173.66754539046906
sS'seg_45'
p676
F179.3327398477411
sS'seg_40'
p677
F183.60227198329358
sS'seg_80'
p678
F173.80316083233
sg18
F200.62732413072294
sS'seg_85'
p679
F172.81150388696523
sS'seg_25'
p680
F190.28048034588346
sS'seg_20'
p681
F191.23531345382162
sS'seg_60'
p682
F179.31624430878747
sS'seg_65'
p683
F176.44041148687737
ssI32
(dp684
S'seg_95'
p685
F161.60327837920093
sS'seg_90'
p686
F160.71435868199472
sS'seg_50'
p687
F167.69682153968742
sS'seg_55'
p688
F167.35259921372327
sS'seg_35'
p689
F171.0301743126868
sS'seg_30'
p690
F171.54903738579281
sS'seg_70'
p691
F163.82174570291943
sS'seg_15'
p692
F177.4395746830447
sS'seg_75'
p693
F163.66822420665483
sS'seg_10'
p694
F179.1454958886926
sS'seg_5'
p695
F181.01871565628292
sS'seg_0'
p696
F183.98318540558597
sS'seg_100'
p697
F1104.5280145330505
sS'seg_45'
p698
F167.43702347679277
sS'seg_40'
p699
F169.65209754590862
sS'seg_80'
p700
F162.506823403431
sg18
F248.10823128377535
sS'seg_85'
p701
F161.29749014132818
sS'seg_25'
p702
F173.06351408547835
sS'seg_20'
p703
F174.68134926434266
sS'seg_60'
p704
F165.3871517291987
sS'seg_65'
p705
F164.5942166143787
ssI33
(dp706
S'seg_95'
p707
F40.02744478288687
sS'seg_90'
p708
F40.037681475948034
sS'seg_50'
p709
F40.48374289105732
sS'seg_55'
p710
F40.287391674522176
sS'seg_35'
p711
F41.1369014482552
sS'seg_30'
p712
F41.48913930064965
sS'seg_70'
p713
F40.23225926959277
sS'seg_15'
p714
F43.65781701771742
sS'seg_75'
p715
F40.14796801652218
sS'seg_10'
p716
F45.76500013446544
sS'seg_5'
p717
F50.20822798762314
sS'seg_0'
p718
F68.8327569010092
sS'seg_100'
p719
F39.99995075067819
sS'seg_45'
p720
F40.69700609227925
sS'seg_40'
p721
F40.86595286396347
sS'seg_80'
p722
F40.10544346739666
sg18
F28354.660595633686
sS'seg_85'
p723
F40.06834353952425
sS'seg_25'
p724
F41.81132315339865
sS'seg_20'
p725
F42.60720216786525
sS'seg_60'
p726
F40.26371714606538
sS'seg_65'
p727
F40.250034557224545
ssI34
(dp728
S'seg_95'
p729
F26.01238235862085
sS'seg_90'
p730
F26.535946233461253
sS'seg_50'
p731
F39.17015512582477
sS'seg_55'
p732
F24.61234267267462
sS'seg_35'
p733
F9891.976546094573
sS'seg_30'
p734
F25.990384673736997
sS'seg_70'
p735
F23.984250066784583
sS'seg_15'
p736
F26.08713176031325
sS'seg_75'
p737
F24.35946016541319
sS'seg_10'
p738
F26.564708368233056
sS'seg_5'
p739
F27.538687681550595
sS'seg_0'
p740
F27.79235832229333
sS'seg_100'
p741
F25.220177237860415
sS'seg_45'
p742
F25.39832505841762
sS'seg_40'
p743
F25.212226447709057
sS'seg_80'
p744
F24.862137319845495
sg18
F3.680249829682612e+194
sS'seg_85'
p745
F26.510895251459704
sS'seg_25'
p746
F25.82652353657307
sS'seg_20'
p747
F26.129816235082377
sS'seg_60'
p748
F24.486058701819104
sS'seg_65'
p749
F1278345.2913133309
ssI35
(dp750
S'seg_95'
p751
F49.16151923632135
sS'seg_90'
p752
F50.7718293591523
sS'seg_50'
p753
F52.8411322573517
sS'seg_55'
p754
F2244230669335.284
sS'seg_35'
p755
F169.0050712154728
sS'seg_30'
p756
F46132207571576.42
sS'seg_70'
p757
F53.968918650980754
sS'seg_15'
p758
F29802.85287053453
sS'seg_75'
p759
F51.88463141499507
sS'seg_10'
p760
F2312.972044058589
sS'seg_5'
p761
F6.1778046722577946e+66
sS'seg_0'
p762
F384.7046328462029
sS'seg_100'
p763
F48.463197541228894
sS'seg_45'
p764
F90340455.53779873
sS'seg_40'
p765
F229.3006550241832
sS'seg_80'
p766
F49.71590265526364
sg18
F1.3426009755163087e+193
sS'seg_85'
p767
F49.48077719867274
sS'seg_25'
p768
F84.04674452642112
sS'seg_20'
p769
F53110098415207.51
sS'seg_60'
p770
F55.46083461589391
sS'seg_65'
p771
F133.17561144872712
ssI36
(dp772
S'seg_95'
p773
F61.99445081021135
sS'seg_90'
p774
F62.012221844091435
sS'seg_50'
p775
F65.66771619356201
sS'seg_55'
p776
F65.02251619520253
sS'seg_35'
p777
F67.55658247360196
sS'seg_30'
p778
F68.55761875910781
sS'seg_70'
p779
F62.86914160956953
sS'seg_15'
p780
F70.646324421094
sS'seg_75'
p781
F62.64548175526129
sS'seg_10'
p782
F71.14973408359096
sS'seg_5'
p783
F71.64793465623289
sS'seg_0'
p784
F72.58040906874892
sS'seg_100'
p785
F62.28696185791163
sS'seg_45'
p786
F66.1401183182118
sS'seg_40'
p787
F67.52133430053593
sS'seg_80'
p788
F62.25356048519033
sg18
F5.3209753244431294e+138
sS'seg_85'
p789
F62.28673271539884
sS'seg_25'
p790
F69.31316531253401
sS'seg_20'
p791
F69.96268797252651
sS'seg_60'
p792
F64.32061658727453
sS'seg_65'
p793
F63.50585107868718
ssI37
(dp794
S'seg_95'
p795
F95.26413418357794
sS'seg_90'
p796
F95.40847145984323
sS'seg_50'
p797
F94.4802587372096
sS'seg_55'
p798
F94.38759453225347
sS'seg_35'
p799
F94.10492674962873
sS'seg_30'
p800
F93.97032627876482
sS'seg_70'
p801
F94.59740493668232
sS'seg_15'
p802
F94.30954354158995
sS'seg_75'
p803
F94.4393256086786
sS'seg_10'
p804
F94.21261519957525
sS'seg_5'
p805
F95.00545470240772
sS'seg_0'
p806
F94.48291576175524
sS'seg_100'
p807
F95.54824077360628
sS'seg_45'
p808
F94.28574814293768
sS'seg_40'
p809
F93.91341498104006
sS'seg_80'
p810
F94.8480918278498
sg18
F4.977287596213936e+21
sS'seg_85'
p811
F95.25015365602287
sS'seg_25'
p812
F94.15778467422129
sS'seg_20'
p813
F94.4984018365927
sS'seg_60'
p814
F94.49659881728509
sS'seg_65'
p815
F94.36335211483481
ssI38
(dp816
S'seg_95'
p817
F127.49692588688916
sS'seg_90'
p818
F127.54968584547757
sS'seg_50'
p819
F129.5991505084005
sS'seg_55'
p820
F128.95098731919694
sS'seg_35'
p821
F130.89193992682618
sS'seg_30'
p822
F131.43758978221496
sS'seg_70'
p823
F127.91797079665994
sS'seg_15'
p824
F133.32867540732872
sS'seg_75'
p825
F127.92230929636166
sS'seg_10'
p826
F133.8815229026133
sS'seg_5'
p827
F134.62794113990546
sS'seg_0'
p828
F135.48236167705033
sS'seg_100'
p829
F127.45916911201604
sS'seg_45'
p830
F129.9051030422902
sS'seg_40'
p831
F130.57193125301535
sS'seg_80'
p832
F127.76514170863803
sg18
F553.4518898570293
sS'seg_85'
p833
F127.58325584763654
sS'seg_25'
p834
F131.89090531554996
sS'seg_20'
p835
F133.04508320084935
sS'seg_60'
p836
F128.70427284374625
sS'seg_65'
p837
F128.3059754425662
ssI39
(dp838
S'seg_95'
p839
F72.8470256909363
sS'seg_90'
p840
F72.79109963832876
sS'seg_50'
p841
F72.62526335851703
sS'seg_55'
p842
F72.60255977412635
sS'seg_35'
p843
F72.9390091272102
sS'seg_30'
p844
F72.9991070828956
sS'seg_70'
p845
F72.56928426848737
sS'seg_15'
p846
F73.74247685210487
sS'seg_75'
p847
F72.60357805306055
sS'seg_10'
p848
F73.89574098419375
sS'seg_5'
p849
F75.02142280125301
sS'seg_0'
p850
F75.73015126810614
sS'seg_100'
p851
F72.866543713611
sS'seg_45'
p852
F72.7224688248007
sS'seg_40'
p853
F72.81049281970412
sS'seg_80'
p854
F72.67285092284241
sg18
F15989681236.114037
sS'seg_85'
p855
F72.70088885094113
sS'seg_25'
p856
F73.2926111667745
sS'seg_20'
p857
F73.58149235917953
sS'seg_60'
p858
F72.57821887143947
sS'seg_65'
p859
F72.56663436264456
ssI40
(dp860
S'seg_95'
p861
F103.24736796368488
sS'seg_90'
p862
F104.71568215022603
sS'seg_50'
p863
F144.48788004671925
sS'seg_55'
p864
F125.5257752002755
sS'seg_35'
p865
F178.41955156367288
sS'seg_30'
p866
F184.88142577290242
sS'seg_70'
p867
F111.12697056561228
sS'seg_15'
p868
F207.6175002786104
sS'seg_75'
p869
F105.90503324042456
sS'seg_10'
p870
F220.2287316905959
sS'seg_5'
p871
F240.12813909382447
sS'seg_0'
p872
F248.68147428711217
sS'seg_100'
p873
F103.97812890025148
sS'seg_45'
p874
F168.29167563215827
sS'seg_40'
p875
F170.97178572362873
sS'seg_80'
p876
F102.88745426517364
sg18
F4.2338270905230067e+40
sS'seg_85'
p877
F103.2190156564988
sS'seg_25'
p878
F195.8266966623639
sS'seg_20'
p879
F204.05034972706653
sS'seg_60'
p880
F125.95009723328255
sS'seg_65'
p881
F115.45072375553825
ssI41
(dp882
S'seg_95'
p883
F84.92449551932465
sS'seg_90'
p884
F85.48403152525432
sS'seg_50'
p885
F89.23086995930547
sS'seg_55'
p886
F88.72727572155496
sS'seg_35'
p887
F90.97655673720776
sS'seg_30'
p888
F91.55757104156535
sS'seg_70'
p889
F87.22557300705381
sS'seg_15'
p890
F93.25225351429906
sS'seg_75'
p891
F87.1699458090247
sS'seg_10'
p892
F95.25754829555001
sS'seg_5'
p893
F95.2414156119779
sS'seg_0'
p894
F96.72875591759913
sS'seg_100'
p895
F84.46999906615392
sS'seg_45'
p896
F89.4346054424825
sS'seg_40'
p897
F90.21607796176585
sS'seg_80'
p898
F86.27212831424585
sg18
F6.572055655513508e+114
sS'seg_85'
p899
F86.39512744641722
sS'seg_25'
p900
F91.71901583969719
sS'seg_20'
p901
F92.66642454486278
sS'seg_60'
p902
F88.00357794765232
sS'seg_65'
p903
F87.76656999206982
ssI42
(dp904
S'seg_95'
p905
F125.70372076622498
sS'seg_90'
p906
F125.53542032352308
sS'seg_50'
p907
F125.82330526748831
sS'seg_55'
p908
F125.54049690448262
sS'seg_35'
p909
F127.20673243169476
sS'seg_30'
p910
F127.82532089277383
sS'seg_70'
p911
F125.34180085410966
sS'seg_15'
p912
F131.81677839421275
sS'seg_75'
p913
F125.27653045759428
sS'seg_10'
p914
F135.4580549946739
sS'seg_5'
p915
F137.17187545551167
sS'seg_0'
p916
F141.64673682582875
sS'seg_100'
p917
F125.90908596501147
sS'seg_45'
p918
F126.18987493949666
sS'seg_40'
p919
F126.19893759575658
sS'seg_80'
p920
F125.34895061621435
sg18
F4537979729.117067
sS'seg_85'
p921
F125.36687856475746
sS'seg_25'
p922
F128.2897506859528
sS'seg_20'
p923
F130.3001771923456
sS'seg_60'
p924
F125.45243924892641
sS'seg_65'
p925
F125.34598054871876
ssI43
(dp926
S'seg_95'
p927
F169.89168734139562
sS'seg_90'
p928
F168.36578269515454
sS'seg_50'
p929
F168.79457919246593
sS'seg_55'
p930
F168.51321646885367
sS'seg_35'
p931
F169.88914263008635
sS'seg_30'
p932
F170.72593758184024
sS'seg_70'
p933
F167.9396633668872
sS'seg_15'
p934
F171.73635540054917
sS'seg_75'
p935
F167.29870714043588
sS'seg_10'
p936
F171.83498850698396
sS'seg_5'
p937
F172.19243822907086
sS'seg_0'
p938
F172.50704904844883
sS'seg_100'
p939
F172.82684932203372
sS'seg_45'
p940
F169.24323101784003
sS'seg_40'
p941
F169.29927029336054
sS'seg_80'
p942
F167.27194322724068
sg18
F189.76598435243648
sS'seg_85'
p943
F167.8345948487015
sS'seg_25'
p944
F170.72268763784572
sS'seg_20'
p945
F170.87047583753477
sS'seg_60'
p946
F168.23271689284817
sS'seg_65'
p947
F168.51272913859404
ssI44
(dp948
S'seg_95'
p949
F33.35803922621689
sS'seg_90'
p950
F33.30378870992969
sS'seg_50'
p951
F34.285253891313204
sS'seg_55'
p952
F34.32583889186073
sS'seg_35'
p953
F34.46361912098577
sS'seg_30'
p954
F34.36745383404886
sS'seg_70'
p955
F33.704716548579434
sS'seg_15'
p956
F34.735179605554215
sS'seg_75'
p957
F33.841560147605136
sS'seg_10'
p958
F34.85234408712383
sS'seg_5'
p959
F35.074372118554436
sS'seg_0'
p960
F35.95056292844505
sS'seg_100'
p961
F33.32603677729229
sS'seg_45'
p962
F34.38685670171479
sS'seg_40'
p963
F34.4390390275143
sS'seg_80'
p964
F33.73921419237452
sg18
F9.980208127718192e+168
sS'seg_85'
p965
F33.379308333175004
sS'seg_25'
p966
F34.329448906244046
sS'seg_20'
p967
F34.42937656030572
sS'seg_60'
p968
F34.20767099643975
sS'seg_65'
p969
F34.0241714835257
ssI45
(dp970
S'seg_95'
p971
F81.34772784632014
sS'seg_90'
p972
F81.41024969763934
sS'seg_50'
p973
F82.18141096980824
sS'seg_55'
p974
F81.95381694220872
sS'seg_35'
p975
F82.92870121072184
sS'seg_30'
p976
F83.17174655371021
sS'seg_70'
p977
F81.52093045334418
sS'seg_15'
p978
F84.46840878718713
sS'seg_75'
p979
F81.43829994578027
sS'seg_10'
p980
F84.80813815070726
sS'seg_5'
p981
F85.33676776522486
sS'seg_0'
p982
F86.06721184740763
sS'seg_100'
p983
F81.3654106658439
sS'seg_45'
p984
F82.30879577060827
sS'seg_40'
p985
F82.43057210641516
sS'seg_80'
p986
F81.44306517082666
sg18
F372.56724822645214
sS'seg_85'
p987
F81.37255164178717
sS'seg_25'
p988
F83.63773594785913
sS'seg_20'
p989
F84.17144677298896
sS'seg_60'
p990
F81.73964849627708
sS'seg_65'
p991
F81.63931525150811
ssI46
(dp992
S'seg_95'
p993
F51.89753522756213
sS'seg_90'
p994
F51.981141785300906
sS'seg_50'
p995
F52.12127732954822
sS'seg_55'
p996
F51.82997230151098
sS'seg_35'
p997
F52.7852013383107
sS'seg_30'
p998
F58.310925326007634
sS'seg_70'
p999
F51.81285054777332
sS'seg_15'
p1000
F56.950616963375964
sS'seg_75'
p1001
F51.860727841140296
sS'seg_10'
p1002
F57.08425866719476
sS'seg_5'
p1003
F59.30163239035503
sS'seg_0'
p1004
F60.084205075824414
sS'seg_100'
p1005
F52.231550282471474
sS'seg_45'
p1006
F52.49164143856079
sS'seg_40'
p1007
F52.94048867871096
sS'seg_80'
p1008
F51.965478370008626
sg18
F7.349573991253491e+194
sS'seg_85'
p1009
F51.77581238103433
sS'seg_25'
p1010
F54.29501671448401
sS'seg_20'
p1011
F55.72340064288371
sS'seg_60'
p1012
F52.39582125285848
sS'seg_65'
p1013
F51.99851780191649
ssI47
(dp1014
S'seg_95'
p1015
F78.75801920110139
sS'seg_90'
p1016
F78.84166348636623
sS'seg_50'
p1017
F84.85529096594809
sS'seg_55'
p1018
F84.28878422186206
sS'seg_35'
p1019
F113.29626042493142
sS'seg_30'
p1020
F107.1192221265321
sS'seg_70'
p1021
F79.68681956823457
sS'seg_15'
p1022
F127.34810200756233
sS'seg_75'
p1023
F80.87730926584449
sS'seg_10'
p1024
F205.74394798008558
sS'seg_5'
p1025
F27852409.35982151
sS'seg_0'
p1026
F329.03979309174576
sS'seg_100'
p1027
F77.16388140379435
sS'seg_45'
p1028
F99.56554055632155
sS'seg_40'
p1029
F87.71902723304751
sS'seg_80'
p1030
F79.01735482858889
sg18
F1.0598199299207371e+175
sS'seg_85'
p1031
F79.21301757325118
sS'seg_25'
p1032
F133.66787852903195
sS'seg_20'
p1033
F119.81024794912949
sS'seg_60'
p1034
F83.03601220217153
sS'seg_65'
p1035
F81.22005590660115
ssI48
(dp1036
S'seg_95'
p1037
F29.742160366718913
sS'seg_90'
p1038
F25.581858648864834
sS'seg_50'
p1039
F25.5190661007979
sS'seg_55'
p1040
F25.13260617412215
sS'seg_35'
p1041
F26.98666502843322
sS'seg_30'
p1042
F27.675412143825753
sS'seg_70'
p1043
F24.712232001112454
sS'seg_15'
p1044
F28.732913685957932
sS'seg_75'
p1045
F26.994498348572172
sS'seg_10'
p1046
F29.832535591520024
sS'seg_5'
p1047
F29.56212904709637
sS'seg_0'
p1048
F31.341532349513425
sS'seg_100'
p1049
F26.29338093657146
sS'seg_45'
p1050
F26.065239831257223
sS'seg_40'
p1051
F26.632520130432464
sS'seg_80'
p1052
F24.644839627761595
sg18
F57.082037163332444
sS'seg_85'
p1053
F25.601611572333137
sS'seg_25'
p1054
F27.821764821649047
sS'seg_20'
p1055
F28.42432556448248
sS'seg_60'
p1056
F26.155235065275075
sS'seg_65'
p1057
F24.806902691273784
ss.