(dp0
I1
(dp1
S'seg_95'
p2
F600.6367288450364
sS'seg_90'
p3
F241.30995841646236
sS'seg_50'
p4
F166.15288377862086
sS'seg_55'
p5
F145.66029354932002
sS'seg_35'
p6
F164.34941226925173
sS'seg_30'
p7
F157.2877545451044
sS'seg_70'
p8
F140.70758095297106
sS'seg_15'
p9
F178.4726517213814
sS'seg_75'
p10
F133.44225721298355
sS'seg_10'
p11
F181.68258337137758
sS'seg_5'
p12
F196.56828068588587
sS'seg_0'
p13
F209.47364145192228
sS'seg_100'
p14
F1670.9467650437823
sS'seg_45'
p15
F148.3332130882769
sS'seg_40'
p16
F171.76642158700076
sS'seg_80'
p17
F126.38220740994613
sS'sw'
p18
F235.08295632062163
sS'seg_85'
p19
F168.55879791937625
sS'seg_25'
p20
F159.97953372569222
sS'seg_20'
p21
F167.2383972064706
sS'seg_60'
p22
F138.0196692901453
sS'seg_65'
p23
F143.1459281403678
ssI2
(dp24
S'seg_95'
p25
F392.90798110625195
sS'seg_90'
p26
F183.50805194378486
sS'seg_50'
p27
F6639610.647851308
sS'seg_55'
p28
F13117351.108118504
sS'seg_35'
p29
F60922.781928999335
sS'seg_30'
p30
F2159663227.7526684
sS'seg_70'
p31
F395.0268595434681
sS'seg_15'
p32
F7.096086833500374e+19
sS'seg_75'
p33
F475.19586954590176
sS'seg_10'
p34
F3.600769504636918e+28
sS'seg_5'
p35
F1.0075237407268091e+40
sS'seg_0'
p36
F2.1549481362888654e+59
sS'seg_100'
p37
F132.34353482562338
sS'seg_45'
p38
F5881380.0763874035
sS'seg_40'
p39
F5143810.658515769
sS'seg_80'
p40
F152.0623918351758
sg18
F158342.296807735
sS'seg_85'
p41
F248.80965082299582
sS'seg_25'
p42
F2.314878644101479e+16
sS'seg_20'
p43
F2911062059929.5327
sS'seg_60'
p44
F1436.0712545944266
sS'seg_65'
p45
F1705.9931603046466
ssI3
(dp46
S'seg_95'
p47
F178.92127736748765
sS'seg_90'
p48
F179.53774930066672
sS'seg_50'
p49
F200.15114808156372
sS'seg_55'
p50
F199.38866339378552
sS'seg_35'
p51
F211.993626197271
sS'seg_30'
p52
F210.87495445298936
sS'seg_70'
p53
F188.50317801583847
sS'seg_15'
p54
F213.6601127750085
sS'seg_75'
p55
F187.01933579630764
sS'seg_10'
p56
F216.0084669209792
sS'seg_5'
p57
F212.08813496709277
sS'seg_0'
p58
F212.20469089830831
sS'seg_100'
p59
F179.76614416655795
sS'seg_45'
p60
F212.9256639787409
sS'seg_40'
p61
F228.64147009266185
sS'seg_80'
p62
F190.33392712450802
sg18
F202.78669562616025
sS'seg_85'
p63
F181.13788790737107
sS'seg_25'
p64
F213.4622803895379
sS'seg_20'
p65
F214.22383328457255
sS'seg_60'
p66
F195.40458306996362
sS'seg_65'
p67
F192.33726867506002
ssI4
(dp68
S'seg_95'
p69
F1.0219375534674691e+170
sS'seg_90'
p70
F2.3602839196144765e+169
sS'seg_50'
p71
F397.1094205893024
sS'seg_55'
p72
F393.8631874991182
sS'seg_35'
p73
F364.3256271081109
sS'seg_30'
p74
F362.5611691931817
sS'seg_70'
p75
F367.26626795659314
sS'seg_15'
p76
F350.9852621922026
sS'seg_75'
p77
F3.0166004788198416e+151
sS'seg_10'
p78
F339.60522140351236
sS'seg_5'
p79
F359.18751721606606
sS'seg_0'
p80
F360.06983226811997
sS'seg_100'
p81
F7.717102103343829e+170
sS'seg_45'
p82
F381.79891607221276
sS'seg_40'
p83
F387.7138241090497
sS'seg_80'
p84
F1.6839419420633544e+166
sg18
F3960895.43928582
sS'seg_85'
p85
F2.3962195591109782e+169
sS'seg_25'
p86
F350.80709641828105
sS'seg_20'
p87
F339.1678342763329
sS'seg_60'
p88
F400.10596658304473
sS'seg_65'
p89
F399.32645450260657
ssI5
(dp90
S'seg_95'
p91
F3.800811306067689e+170
sS'seg_90'
p92
F444.5602750716266
sS'seg_50'
p93
F397.1928918036914
sS'seg_55'
p94
F358.7193241006479
sS'seg_35'
p95
F405.6961872842036
sS'seg_30'
p96
F418.5602428732462
sS'seg_70'
p97
F355.6261997663725
sS'seg_15'
p98
F426.5016045770552
sS'seg_75'
p99
F354.8403885143658
sS'seg_10'
p100
F425.6587695263244
sS'seg_5'
p101
F426.5636871717511
sS'seg_0'
p102
F427.3030512048629
sS'seg_100'
p103
F4.097626120966043e+170
sS'seg_45'
p104
F404.50281705906553
sS'seg_40'
p105
F417.8303423891933
sS'seg_80'
p106
F355.6003549445719
sg18
F363.2814204851455
sS'seg_85'
p107
F362.519262259787
sS'seg_25'
p108
F425.65734593226324
sS'seg_20'
p109
F426.8959839425608
sS'seg_60'
p110
F364.10105089691706
sS'seg_65'
p111
F356.5487592315664
ssI6
(dp112
S'seg_95'
p113
F1246262.4644717737
sS'seg_90'
p114
F414802.3440305406
sS'seg_50'
p115
F168.6054637371539
sS'seg_55'
p116
F137.6520546675676
sS'seg_35'
p117
F192.4272922206579
sS'seg_30'
p118
F233.64421761296256
sS'seg_70'
p119
F106.34791648707127
sS'seg_15'
p120
F251.1365521600663
sS'seg_75'
p121
F106.25462844653914
sS'seg_10'
p122
F271.74207536430436
sS'seg_5'
p123
F318.08190768973
sS'seg_0'
p124
F303.12003725390554
sS'seg_100'
p125
F2865840.8250589366
sS'seg_45'
p126
F176.13469741509354
sS'seg_40'
p127
F199.90601411301293
sS'seg_80'
p128
F406510.4575321488
sg18
F9.750423633953808e+55
sS'seg_85'
p129
F228539.50614443095
sS'seg_25'
p130
F209.79679199765374
sS'seg_20'
p131
F228.9806213713801
sS'seg_60'
p132
F111.21331963244884
sS'seg_65'
p133
F140.02253243798222
ssI7
(dp134
S'seg_95'
p135
F1.9002503760350977e+183
sS'seg_90'
p136
F1.354352058954289e+192
sS'seg_50'
p137
F7.905837855321799e+35
sS'seg_55'
p138
F5.552436384215257e+182
sS'seg_35'
p139
F637.098114600726
sS'seg_30'
p140
F1906.160593461643
sS'seg_70'
p141
F3.743832348608883e+187
sS'seg_15'
p142
F643.0237532917251
sS'seg_75'
p143
F9.052622449933498e+190
sS'seg_10'
p144
F585.1258313996568
sS'seg_5'
p145
F821.4332652337664
sS'seg_0'
p146
F7275.903055197983
sS'seg_100'
p147
F2.501514879353684e+188
sS'seg_45'
p148
F635.8466701983054
sS'seg_40'
p149
F662.4526172044377
sS'seg_80'
p150
F3.2940542869058545e+187
sg18
F27044040.36811652
sS'seg_85'
p151
F9.492948037463664e+186
sS'seg_25'
p152
F683.4387817046091
sS'seg_20'
p153
F641.1589099067465
sS'seg_60'
p154
F1.0676624649495764e+183
sS'seg_65'
p155
F3.962464871150488e+187
ssI8
(dp156
S'seg_95'
p157
F2453.6628124702283
sS'seg_90'
p158
F1967.2113596182116
sS'seg_50'
p159
F173.74996311972845
sS'seg_55'
p160
F142.48109435502755
sS'seg_35'
p161
F160.93668275195984
sS'seg_30'
p162
F168.52488677915036
sS'seg_70'
p163
F269.8652004124728
sS'seg_15'
p164
F298.05978659594393
sS'seg_75'
p165
F271.2293056421048
sS'seg_10'
p166
F259.7842592729043
sS'seg_5'
p167
F196.4395869249792
sS'seg_0'
p168
F269.39520615345384
sS'seg_100'
p169
F1367.3492064896725
sS'seg_45'
p170
F163.77126867660826
sS'seg_40'
p171
F264.4730217519374
sS'seg_80'
p172
F397.67983139464206
sg18
F216.7826237199578
sS'seg_85'
p173
F553.3646063317668
sS'seg_25'
p174
F249.24921372700993
sS'seg_20'
p175
F259.35275274165497
sS'seg_60'
p176
F190.85168215540332
sS'seg_65'
p177
F277.4514435993548
ssI9
(dp178
S'seg_95'
p179
F366.05591148709317
sS'seg_90'
p180
F359.8021983766169
sS'seg_50'
p181
F365.38387613384725
sS'seg_55'
p182
F356.3000845961348
sS'seg_35'
p183
F370.82204430594857
sS'seg_30'
p184
F367.5254001009103
sS'seg_70'
p185
F355.20284839339246
sS'seg_15'
p186
F370.76916536146007
sS'seg_75'
p187
F351.7654384849481
sS'seg_10'
p188
F373.72257330643964
sS'seg_5'
p189
F385.6491700485475
sS'seg_0'
p190
F400.135725445559
sS'seg_100'
p191
F411.6217078784442
sS'seg_45'
p192
F363.97682239456105
sS'seg_40'
p193
F364.2276352461437
sS'seg_80'
p194
F358.67021381084515
sg18
F6.608529523232967e+113
sS'seg_85'
p195
F360.725737216766
sS'seg_25'
p196
F365.1663005113619
sS'seg_20'
p197
F365.23140725908524
sS'seg_60'
p198
F356.1401762125761
sS'seg_65'
p199
F356.82596450417066
ssI10
(dp200
S'seg_95'
p201
F185.0691404875887
sS'seg_90'
p202
F163.39711844882387
sS'seg_50'
p203
F97.86139802755652
sS'seg_55'
p204
F151.6105784102068
sS'seg_35'
p205
F84.46645509784348
sS'seg_30'
p206
F87.48928261630847
sS'seg_70'
p207
F246.1541715679453
sS'seg_15'
p208
F87.52696715703571
sS'seg_75'
p209
F238.25718506051106
sS'seg_10'
p210
F88.91185390152884
sS'seg_5'
p211
F90.16147539208274
sS'seg_0'
p212
F89.21706882408584
sS'seg_100'
p213
F128.68349960723276
sS'seg_45'
p214
F94.58347612013719
sS'seg_40'
p215
F83.41900847726984
sS'seg_80'
p216
F212.8350582933561
sg18
F160.02330139004513
sS'seg_85'
p217
F234.6836574886234
sS'seg_25'
p218
F86.33192648834138
sS'seg_20'
p219
F86.8452496624972
sS'seg_60'
p220
F108.83896624495533
sS'seg_65'
p221
F277.4607163933617
ssI11
(dp222
S'seg_95'
p223
F1103.607892908901
sS'seg_90'
p224
F1533.2805483862394
sS'seg_50'
p225
F498387.30608184927
sS'seg_55'
p226
F297569.2542384199
sS'seg_35'
p227
F1228899.1950213797
sS'seg_30'
p228
F676209.3937136602
sS'seg_70'
p229
F18169.968381520623
sS'seg_15'
p230
F61.25210737274531
sS'seg_75'
p231
F5439.22320913418
sS'seg_10'
p232
F63.76526673655386
sS'seg_5'
p233
F66.12133477064802
sS'seg_0'
p234
F67.97674615994787
sS'seg_100'
p235
F958.1963605603918
sS'seg_45'
p236
F1726343.2572797474
sS'seg_40'
p237
F182887.5886246353
sS'seg_80'
p238
F2917.620922950355
sg18
F44.591606541678594
sS'seg_85'
p239
F1494.014931119344
sS'seg_25'
p240
F182438.47122723545
sS'seg_20'
p241
F97675.33515383251
sS'seg_60'
p242
F19797.60894595812
sS'seg_65'
p243
F17045.048396414357
ssI12
(dp244
S'seg_95'
p245
F63.725302427749206
sS'seg_90'
p246
F64.71734823532574
sS'seg_50'
p247
F122.8849374420359
sS'seg_55'
p248
F70.92387557663014
sS'seg_35'
p249
F600.6385728373768
sS'seg_30'
p250
F2287.753664625759
sS'seg_70'
p251
F64.8755962256856
sS'seg_15'
p252
F9643.557422445056
sS'seg_75'
p253
F66.40883054540626
sS'seg_10'
p254
F75340.03084546537
sS'seg_5'
p255
F5052625.473763665
sS'seg_0'
p256
F7071231.756705279
sS'seg_100'
p257
F54.30119860259613
sS'seg_45'
p258
F528.1585270370315
sS'seg_40'
p259
F310.2739230422367
sS'seg_80'
p260
F65.17469178570472
sg18
F7277.658042582593
sS'seg_85'
p261
F66.59306817991009
sS'seg_25'
p262
F4516.3386226997345
sS'seg_20'
p263
F42026.94274334979
sS'seg_60'
p264
F65.2678737463972
sS'seg_65'
p265
F73.4310573610062
ssI13
(dp266
S'seg_95'
p267
F9.199568569600155e+40
sS'seg_90'
p268
F1.0160583997871588e+31
sS'seg_50'
p269
F209.76964440553292
sS'seg_55'
p270
F227.03328237394317
sS'seg_35'
p271
F239.0166629842125
sS'seg_30'
p272
F242.5908954482049
sS'seg_70'
p273
F251.7532707213008
sS'seg_15'
p274
F260.79711130046365
sS'seg_75'
p275
F286.54818396957535
sS'seg_10'
p276
F278.0327180231975
sS'seg_5'
p277
F295.9052409847563
sS'seg_0'
p278
F332.3829704634078
sS'seg_100'
p279
F6.7207143931982105e+41
sS'seg_45'
p280
F245.35861868900514
sS'seg_40'
p281
F256.1014461974436
sS'seg_80'
p282
F225.77685128582925
sg18
F1502.6491201726792
sS'seg_85'
p283
F232.31939044907193
sS'seg_25'
p284
F237.48440723614286
sS'seg_20'
p285
F250.96113652816794
sS'seg_60'
p286
F249.5936527588718
sS'seg_65'
p287
F267.0075580308766
ssI14
(dp288
S'seg_95'
p289
F138.50777079149782
sS'seg_90'
p290
F146.14937610267685
sS'seg_50'
p291
F351.41978336937524
sS'seg_55'
p292
F280.9665725770292
sS'seg_35'
p293
F413.46376181730454
sS'seg_30'
p294
F874.5279344057662
sS'seg_70'
p295
F218.02124187784224
sS'seg_15'
p296
F11548.349685956566
sS'seg_75'
p297
F221.59126560875043
sS'seg_10'
p298
F22664.29191939455
sS'seg_5'
p299
F4136.875868967745
sS'seg_0'
p300
F11985.081368734365
sS'seg_100'
p301
F123.13948836968386
sS'seg_45'
p302
F373.4447856925848
sS'seg_40'
p303
F269.5518527356672
sS'seg_80'
p304
F259.9672807680154
sg18
F417.2974036109104
sS'seg_85'
p305
F213.1439342097965
sS'seg_25'
p306
F378.74859762438746
sS'seg_20'
p307
F1173.0847688176275
sS'seg_60'
p308
F253.74664546026673
sS'seg_65'
p309
F262.791182321352
ssI15
(dp310
S'seg_95'
p311
F69.61630542221424
sS'seg_90'
p312
F85.63020400477214
sS'seg_50'
p313
F119.29785130713844
sS'seg_55'
p314
F88.70539075132817
sS'seg_35'
p315
F521.1764103110331
sS'seg_30'
p316
F306.0953593209595
sS'seg_70'
p317
F84.38401444339588
sS'seg_15'
p318
F946.0729699930646
sS'seg_75'
p319
F81.90962524677352
sS'seg_10'
p320
F1623.2750828774028
sS'seg_5'
p321
F3872.4294183425095
sS'seg_0'
p322
F1330.7243142610118
sS'seg_100'
p323
F70.0548326250531
sS'seg_45'
p324
F164.65623774355362
sS'seg_40'
p325
F313.3123914790549
sS'seg_80'
p326
F74.95362558444174
sg18
F7.765916025459044e+165
sS'seg_85'
p327
F88.6178651783585
sS'seg_25'
p328
F14792.956159563071
sS'seg_20'
p329
F967.3159066666909
sS'seg_60'
p330
F92.04170660441244
sS'seg_65'
p331
F108.77752309212242
ssI16
(dp332
S'seg_95'
p333
F1850.9656994129843
sS'seg_90'
p334
F2035.2159268752355
sS'seg_50'
p335
F153.07706816322857
sS'seg_55'
p336
F174.7052564039951
sS'seg_35'
p337
F171.37065532032858
sS'seg_30'
p338
F174.15121437885517
sS'seg_70'
p339
F1929.2836433069701
sS'seg_15'
p340
F185.21443832007088
sS'seg_75'
p341
F1203.2586531703666
sS'seg_10'
p342
F181.89102567714764
sS'seg_5'
p343
F188.66644756926408
sS'seg_0'
p344
F208.94430569464762
sS'seg_100'
p345
F3116.5020488994014
sS'seg_45'
p346
F185.53952761946204
sS'seg_40'
p347
F157.63205611824128
sS'seg_80'
p348
F3434.7930323150586
sg18
F2.2449190396553975e+22
sS'seg_85'
p349
F2250.585249913759
sS'seg_25'
p350
F182.3512847201401
sS'seg_20'
p351
F225.32840892415385
sS'seg_60'
p352
F357.5838519622782
sS'seg_65'
p353
F1176.0578515201637
ssI17
(dp354
S'seg_95'
p355
F1028.9200003880123
sS'seg_90'
p356
F827.1679899749681
sS'seg_50'
p357
F1860.3171019182005
sS'seg_55'
p358
F1505.177490923971
sS'seg_35'
p359
F1229.6332604233273
sS'seg_30'
p360
F3527.853927207313
sS'seg_70'
p361
F1060.078265933462
sS'seg_15'
p362
F12238.082660125
sS'seg_75'
p363
F1013.1930603420703
sS'seg_10'
p364
F19185.749914595046
sS'seg_5'
p365
F504061.79379266826
sS'seg_0'
p366
F16123.80205311031
sS'seg_100'
p367
F503.02766283468225
sS'seg_45'
p368
F1637.4395795821997
sS'seg_40'
p369
F2158.8948424917444
sS'seg_80'
p370
F888.2865291227375
sg18
F2.15814717999075e+45
sS'seg_85'
p371
F1060.4364281445344
sS'seg_25'
p372
F3106.4845641724196
sS'seg_20'
p373
F3441.582028697686
sS'seg_60'
p374
F1419.7095579846514
sS'seg_65'
p375
F1060.3550627466618
ssI18
(dp376
S'seg_95'
p377
F1.3858256381478383e+33
sS'seg_90'
p378
F6.901161907163792e+32
sS'seg_50'
p379
F141.79729063530104
sS'seg_55'
p380
F189.65229746037028
sS'seg_35'
p381
F1006.4174207628819
sS'seg_30'
p382
F3656.957556461954
sS'seg_70'
p383
F96.02886060799933
sS'seg_15'
p384
F1165968.2883328223
sS'seg_75'
p385
F79.01306489376714
sS'seg_10'
p386
F5.2662414676350976e+17
sS'seg_5'
p387
F332833215339719.3
sS'seg_0'
p388
F5.6677607727291635e+17
sS'seg_100'
p389
F3.814218680613337e+33
sS'seg_45'
p390
F351.95284505851777
sS'seg_40'
p391
F248.7392872052682
sS'seg_80'
p392
F62.85489871586376
sg18
F1.8847580201942326e+158
sS'seg_85'
p393
F3.7620248034826495e+26
sS'seg_25'
p394
F194006.22087389376
sS'seg_20'
p395
F31142.281659566408
sS'seg_60'
p396
F140.34818220464913
sS'seg_65'
p397
F104.16481031637329
ssI19
(dp398
S'seg_95'
p399
F188.80731988140639
sS'seg_90'
p400
F183.98747488906875
sS'seg_50'
p401
F168.5085063551039
sS'seg_55'
p402
F159.76557482857322
sS'seg_35'
p403
F166.53240825582128
sS'seg_30'
p404
F171.05036252293704
sS'seg_70'
p405
F158.2603551037147
sS'seg_15'
p406
F176.59402707245835
sS'seg_75'
p407
F158.752107660422
sS'seg_10'
p408
F192.38539691916185
sS'seg_5'
p409
F186.96213983045612
sS'seg_0'
p410
F197.62600444151963
sS'seg_100'
p411
F266.3211410134705
sS'seg_45'
p412
F160.72265531000835
sS'seg_40'
p413
F164.06585216515614
sS'seg_80'
p414
F158.3944166009797
sg18
F884.399814422176
sS'seg_85'
p415
F172.7868955396464
sS'seg_25'
p416
F174.78271438888902
sS'seg_20'
p417
F175.76520746518602
sS'seg_60'
p418
F159.48043487797943
sS'seg_65'
p419
F160.6490238002032
ssI20
(dp420
S'seg_95'
p421
F76.68649164824188
sS'seg_90'
p422
F63.98698286809921
sS'seg_50'
p423
F139.2724308680834
sS'seg_55'
p424
F97.2329107936941
sS'seg_35'
p425
F481.174098881443
sS'seg_30'
p426
F116.2210481608985
sS'seg_70'
p427
F80.80999347475839
sS'seg_15'
p428
F195.6734026969835
sS'seg_75'
p429
F68.7007854676687
sS'seg_10'
p430
F1848.1161403324015
sS'seg_5'
p431
F4821.653006157843
sS'seg_0'
p432
F3140.341377909021
sS'seg_100'
p433
F61.817138286856235
sS'seg_45'
p434
F386.91566358927355
sS'seg_40'
p435
F295.63225819684453
sS'seg_80'
p436
F76.07709367675875
sg18
F363.27488162648933
sS'seg_85'
p437
F61.47620312521286
sS'seg_25'
p438
F10541.086153764663
sS'seg_20'
p439
F328.35535626232917
sS'seg_60'
p440
F79.20091661436194
sS'seg_65'
p441
F94.09548684182705
ssI21
(dp442
S'seg_95'
p443
F12032.169553802043
sS'seg_90'
p444
F17000.230446697555
sS'seg_50'
p445
F5839669.962798481
sS'seg_55'
p446
F21319549.331531852
sS'seg_35'
p447
F1196008230.4007468
sS'seg_30'
p448
F2.6837770016930528e+17
sS'seg_70'
p449
F27386.44827259562
sS'seg_15'
p450
F3.118997639877109e+24
sS'seg_75'
p451
F9.143907468370204e+17
sS'seg_10'
p452
F7.268055832155913e+34
sS'seg_5'
p453
F1.3095723033980875e+42
sS'seg_0'
p454
F4.387823753762309e+42
sS'seg_100'
p455
F19556.47757428562
sS'seg_45'
p456
F5966519.036671956
sS'seg_40'
p457
F1.150537704031241e+19
sS'seg_80'
p458
F33027.0980018522
sg18
F2.2955583716455743e+138
sS'seg_85'
p459
F20596.484318738956
sS'seg_25'
p460
F2.0837391621312525e+17
sS'seg_20'
p461
F2.6111437672273224e+38
sS'seg_60'
p462
F53523.73627012363
sS'seg_65'
p463
F4.874133304880601e+17
ssI22
(dp464
S'seg_95'
p465
F1618.1196684146944
sS'seg_90'
p466
F1564.9203073353667
sS'seg_50'
p467
F5571.391509022659
sS'seg_55'
p468
F4827.816477250619
sS'seg_35'
p469
F24252.422074179252
sS'seg_30'
p470
F117149.29919270074
sS'seg_70'
p471
F4317.700703142476
sS'seg_15'
p472
F4.473218374838835e+17
sS'seg_75'
p473
F4528.4063150588645
sS'seg_10'
p474
F8.540010585844227e+17
sS'seg_5'
p475
F1.301452023207737e+19
sS'seg_0'
p476
F1.3062085397143476e+19
sS'seg_100'
p477
F919.4818224802054
sS'seg_45'
p478
F9865.197667212522
sS'seg_40'
p479
F10855.78916266068
sS'seg_80'
p480
F2953.6597919355195
sg18
F4.0015881987065066e+65
sS'seg_85'
p481
F5429.014249434202
sS'seg_25'
p482
F62489.694682417066
sS'seg_20'
p483
F1.0269368645180822e+16
sS'seg_60'
p484
F5001.689439070803
sS'seg_65'
p485
F2213.0395316899203
ssI23
(dp486
S'seg_95'
p487
F138.7857643126742
sS'seg_90'
p488
F137.9976921005257
sS'seg_50'
p489
F147.68084846353827
sS'seg_55'
p490
F143.23071615057387
sS'seg_35'
p491
F154.28620553637558
sS'seg_30'
p492
F158.01074965626933
sS'seg_70'
p493
F136.46313471575425
sS'seg_15'
p494
F170.40135158778975
sS'seg_75'
p495
F135.5027884319674
sS'seg_10'
p496
F192.6998062955676
sS'seg_5'
p497
F197.0008487856814
sS'seg_0'
p498
F195.53513470198968
sS'seg_100'
p499
F137.12603537597525
sS'seg_45'
p500
F159.55090732132862
sS'seg_40'
p501
F160.4758436083566
sS'seg_80'
p502
F134.13636401695902
sg18
F7.627387918618713e+37
sS'seg_85'
p503
F133.943808702456
sS'seg_25'
p504
F162.06943606278324
sS'seg_20'
p505
F170.87388184597398
sS'seg_60'
p506
F138.66894804531904
sS'seg_65'
p507
F140.90005441525412
ssI24
(dp508
S'seg_95'
p509
F202.27891569026355
sS'seg_90'
p510
F202.25149956663824
sS'seg_50'
p511
F208.6601032429403
sS'seg_55'
p512
F207.6974175687958
sS'seg_35'
p513
F215.37355672785716
sS'seg_30'
p514
F218.97217127011928
sS'seg_70'
p515
F203.80015753370088
sS'seg_15'
p516
F236.08726321635567
sS'seg_75'
p517
F203.37396489095448
sS'seg_10'
p518
F252.19309205974886
sS'seg_5'
p519
F259.99771533401315
sS'seg_0'
p520
F332.9256768151311
sS'seg_100'
p521
F204.27572993192305
sS'seg_45'
p522
F210.2218227718835
sS'seg_40'
p523
F214.63138799252292
sS'seg_80'
p524
F202.8114687835878
sg18
F346.47115044053294
sS'seg_85'
p525
F202.39217158128722
sS'seg_25'
p526
F227.0630782401344
sS'seg_20'
p527
F234.88096573984808
sS'seg_60'
p528
F205.94473263020228
sS'seg_65'
p529
F205.19145029640237
ssI25
(dp530
S'seg_95'
p531
F44.04871870797819
sS'seg_90'
p532
F44.526606847664496
sS'seg_50'
p533
F46.50493319436515
sS'seg_55'
p534
F46.00168115582707
sS'seg_35'
p535
F49.02228802651598
sS'seg_30'
p536
F49.22560149003937
sS'seg_70'
p537
F44.79498172181144
sS'seg_15'
p538
F53.116216419571856
sS'seg_75'
p539
F44.8666222117153
sS'seg_10'
p540
F55.81682542263561
sS'seg_5'
p541
F56.20031012574899
sS'seg_0'
p542
F57.71033190203671
sS'seg_100'
p543
F43.64470709356425
sS'seg_45'
p544
F47.477290481492005
sS'seg_40'
p545
F48.00953477994323
sS'seg_80'
p546
F44.358195504779275
sg18
F16985941819968.943
sS'seg_85'
p547
F44.108925167212135
sS'seg_25'
p548
F50.71855700090869
sS'seg_20'
p549
F51.898519401011036
sS'seg_60'
p550
F45.73626745621997
sS'seg_65'
p551
F45.776557283159285
ssI26
(dp552
S'seg_95'
p553
F40918.92746207839
sS'seg_90'
p554
F11900.477141718777
sS'seg_50'
p555
F156.8448937401782
sS'seg_55'
p556
F160.7196937900411
sS'seg_35'
p557
F211.12779115960538
sS'seg_30'
p558
F215.63641520643105
sS'seg_70'
p559
F6694.328108455052
sS'seg_15'
p560
F223.6554209944823
sS'seg_75'
p561
F4811.339811725773
sS'seg_10'
p562
F241.03314674029653
sS'seg_5'
p563
F322.87193876223637
sS'seg_0'
p564
F264.090819576296
sS'seg_100'
p565
F62061.585801646565
sS'seg_45'
p566
F199.88261573830158
sS'seg_40'
p567
F193.3024958891806
sS'seg_80'
p568
F14321.087678334705
sg18
F160.82350194303265
sS'seg_85'
p569
F24680.32635375345
sS'seg_25'
p570
F216.34495462285977
sS'seg_20'
p571
F238.95408981517917
sS'seg_60'
p572
F218.41258957560314
sS'seg_65'
p573
F1064.0808883714658
ssI27
(dp574
S'seg_95'
p575
F103.25416535174452
sS'seg_90'
p576
F121.58635303089738
sS'seg_50'
p577
F294.59041293202256
sS'seg_55'
p578
F287.0340342392936
sS'seg_35'
p579
F140.31545020074896
sS'seg_30'
p580
F140.63792313861597
sS'seg_70'
p581
F263.3562572664319
sS'seg_15'
p582
F102.84689352694542
sS'seg_75'
p583
F206.87320486824078
sS'seg_10'
p584
F190.0569741055819
sS'seg_5'
p585
F140.26564307290596
sS'seg_0'
p586
F120.58047419051233
sS'seg_100'
p587
F96.52361726370667
sS'seg_45'
p588
F347.1104271210522
sS'seg_40'
p589
F543.1032482554926
sS'seg_80'
p590
F177.13664523621162
sg18
F79875.58895495554
sS'seg_85'
p591
F131.78505036129758
sS'seg_25'
p592
F115.28390001424756
sS'seg_20'
p593
F112.05869528060798
sS'seg_60'
p594
F300.9710993441566
sS'seg_65'
p595
F182.70484947508058
ssI28
(dp596
S'seg_95'
p597
F124.18279204539365
sS'seg_90'
p598
F123.7280050663542
sS'seg_50'
p599
F133.35256285680964
sS'seg_55'
p600
F133.87581191742024
sS'seg_35'
p601
F134.39474612289473
sS'seg_30'
p602
F137.74570811258513
sS'seg_70'
p603
F125.81168600342983
sS'seg_15'
p604
F141.2589826209919
sS'seg_75'
p605
F126.88793779278703
sS'seg_10'
p606
F143.48688554851557
sS'seg_5'
p607
F147.06221671582054
sS'seg_0'
p608
F149.15721192689293
sS'seg_100'
p609
F123.45622268054174
sS'seg_45'
p610
F139.32586236958122
sS'seg_40'
p611
F133.97308151508693
sS'seg_80'
p612
F124.53351386390378
sg18
F165.89470238109394
sS'seg_85'
p613
F123.8188435865683
sS'seg_25'
p614
F136.4251305377691
sS'seg_20'
p615
F138.27011254724758
sS'seg_60'
p616
F127.7004352562792
sS'seg_65'
p617
F126.81555872289687
ssI29
(dp618
S'seg_95'
p619
F3.5307059644506683e+164
sS'seg_90'
p620
F2.3208988418897343e+164
sS'seg_50'
p621
F266.88014058615784
sS'seg_55'
p622
F261.71489144218344
sS'seg_35'
p623
F270.4735635801308
sS'seg_30'
p624
F273.2989407367011
sS'seg_70'
p625
F253.47017861283294
sS'seg_15'
p626
F280.00134361917975
sS'seg_75'
p627
F251.91312308868447
sS'seg_10'
p628
F282.71873407734546
sS'seg_5'
p629
F324.60320317683215
sS'seg_0'
p630
F289.4396320853799
sS'seg_100'
p631
F1.5724015351935995e+164
sS'seg_45'
p632
F259.1279615806797
sS'seg_40'
p633
F256.2573791090706
sS'seg_80'
p634
F255.67441873484412
sg18
F1570.4562855623215
sS'seg_85'
p635
F4.375488320985653e+163
sS'seg_25'
p636
F268.2478805594169
sS'seg_20'
p637
F287.9313521902967
sS'seg_60'
p638
F254.9989787146858
sS'seg_65'
p639
F256.1562482433696
ssI30
(dp640
S'seg_95'
p641
F124.05940632694623
sS'seg_90'
p642
F101.0224440633481
sS'seg_50'
p643
F99.72091187992638
sS'seg_55'
p644
F97.3936196218005
sS'seg_35'
p645
F152.9894406190304
sS'seg_30'
p646
F146.72510291465113
sS'seg_70'
p647
F96.88880925682551
sS'seg_15'
p648
F227.1356756549866
sS'seg_75'
p649
F127.2701640418137
sS'seg_10'
p650
F247.3391726077617
sS'seg_5'
p651
F352.3278984235661
sS'seg_0'
p652
F489.8643499372776
sS'seg_100'
p653
F116.53456367455684
sS'seg_45'
p654
F99.72577606459103
sS'seg_40'
p655
F138.42385222130824
sS'seg_80'
p656
F119.3998059547238
sg18
F106.20943170133796
sS'seg_85'
p657
F117.223559624372
sS'seg_25'
p658
F145.46088558962555
sS'seg_20'
p659
F272.76640035428636
sS'seg_60'
p660
F102.5153288304463
sS'seg_65'
p661
F96.53598222442324
ssI31
(dp662
S'seg_95'
p663
F170.97286123380817
sS'seg_90'
p664
F170.08120730172539
sS'seg_50'
p665
F177.40820369887902
sS'seg_55'
p666
F177.6327869418021
sS'seg_35'
p667
F180.92510177629745
sS'seg_30'
p668
F181.53473078780016
sS'seg_70'
p669
F171.5700210309082
sS'seg_15'
p670
F188.20845085867762
sS'seg_75'
p671
F171.03002090040306
sS'seg_10'
p672
F189.26274218711012
sS'seg_5'
p673
F191.3295367853324
sS'seg_0'
p674
F191.9097733443965
sS'seg_100'
p675
F178.50207194581301
sS'seg_45'
p676
F176.95195828288595
sS'seg_40'
p677
F180.14018349195297
sS'seg_80'
p678
F171.50954383357225
sg18
F197.05334926351642
sS'seg_85'
p679
F170.09504538207958
sS'seg_25'
p680
F187.48304097663458
sS'seg_20'
p681
F185.8884869939069
sS'seg_60'
p682
F175.784861929025
sS'seg_65'
p683
F173.01251815807547
ssI32
(dp684
S'seg_95'
p685
F191.8425168696163
sS'seg_90'
p686
F159.0769326185331
sS'seg_50'
p687
F168.956592318428
sS'seg_55'
p688
F167.59667448311785
sS'seg_35'
p689
F173.43351154081356
sS'seg_30'
p690
F179.11012610018813
sS'seg_70'
p691
F164.06913506954996
sS'seg_15'
p692
F183.5846156718943
sS'seg_75'
p693
F162.97461593202254
sS'seg_10'
p694
F185.21851742066704
sS'seg_5'
p695
F180.88757518913343
sS'seg_0'
p696
F188.3563621518669
sS'seg_100'
p697
F259.67197083359594
sS'seg_45'
p698
F170.042951372525
sS'seg_40'
p699
F170.2481721464155
sS'seg_80'
p700
F161.16150080715198
sg18
F248.10823128377535
sS'seg_85'
p701
F159.73802771526653
sS'seg_25'
p702
F177.05172643896066
sS'seg_20'
p703
F178.70014851489563
sS'seg_60'
p704
F166.82305938930773
sS'seg_65'
p705
F168.6646945966085
ssI33
(dp706
S'seg_95'
p707
F41.27766987115886
sS'seg_90'
p708
F41.18192037243078
sS'seg_50'
p709
F40.93718375435472
sS'seg_55'
p710
F40.89860503561795
sS'seg_35'
p711
F41.667655979958354
sS'seg_30'
p712
F41.819838927433025
sS'seg_70'
p713
F40.671314913027935
sS'seg_15'
p714
F47.877766957024924
sS'seg_75'
p715
F40.58385744097941
sS'seg_10'
p716
F53.11061103483462
sS'seg_5'
p717
F59.31916573405179
sS'seg_0'
p718
F568967316.5331316
sS'seg_100'
p719
F41.85999335606074
sS'seg_45'
p720
F41.22627836524683
sS'seg_40'
p721
F41.14907329178667
sS'seg_80'
p722
F40.589305727439196
sg18
F30490.20153474835
sS'seg_85'
p723
F41.02470193177739
sS'seg_25'
p724
F42.940431115558425
sS'seg_20'
p725
F44.942918360189125
sS'seg_60'
p726
F40.94130739141605
sS'seg_65'
p727
F40.69334159135581
ssI34
(dp728
S'seg_95'
p729
F486.79569533497505
sS'seg_90'
p730
F468.3625070470089
sS'seg_50'
p731
F960.6326778840352
sS'seg_55'
p732
F586.4056726976985
sS'seg_35'
p733
F264703.4766152554
sS'seg_30'
p734
F523.6058115014541
sS'seg_70'
p735
F451.0106137951043
sS'seg_15'
p736
F173.63532449424426
sS'seg_75'
p737
F302.35308444953
sS'seg_10'
p738
F145.74629962357992
sS'seg_5'
p739
F129.4802826355291
sS'seg_0'
p740
F6350.838192075331
sS'seg_100'
p741
F264.0935685672128
sS'seg_45'
p742
F733.4583251311299
sS'seg_40'
p743
F388.50593116168756
sS'seg_80'
p744
F355.3530579215957
sg18
F6.309234483629232e+192
sS'seg_85'
p745
F373.6897115771325
sS'seg_25'
p746
F519.6723429090086
sS'seg_20'
p747
F235.78383241901315
sS'seg_60'
p748
F631.4022240342481
sS'seg_65'
p749
F29229426.582610898
ssI35
(dp750
S'seg_95'
p751
F8908.714219249448
sS'seg_90'
p752
F10323.565334294322
sS'seg_50'
p753
F7646522.332033044
sS'seg_55'
p754
F4.288150803134734e+16
sS'seg_35'
p755
F508946452526.4154
sS'seg_30'
p756
F2.7920819180505948e+23
sS'seg_70'
p757
F23300.213305888134
sS'seg_15'
p758
F5.592717029909733e+17
sS'seg_75'
p759
F33208.48220008668
sS'seg_10'
p760
F2.1991630786321578e+24
sS'seg_5'
p761
F5.31969845265918e+80
sS'seg_0'
p762
F5.359914794248358e+88
sS'seg_100'
p763
F5299.04463793304
sS'seg_45'
p764
F4935783682666.786
sS'seg_40'
p765
F64458116.75412451
sS'seg_80'
p766
F20273.826519721406
sg18
F1.157202379138585e+193
sS'seg_85'
p767
F19486.564250091837
sS'seg_25'
p768
F22196072562708.74
sS'seg_20'
p769
F1.1383036837151872e+28
sS'seg_60'
p770
F184033.1173871769
sS'seg_65'
p771
F1357648.3234682602
ssI36
(dp772
S'seg_95'
p773
F89.50923879199203
sS'seg_90'
p774
F93.97458833116966
sS'seg_50'
p775
F65.06232905997541
sS'seg_55'
p776
F69.2419303738687
sS'seg_35'
p777
F71.18207414470636
sS'seg_30'
p778
F67.39281708621446
sS'seg_70'
p779
F74.23216503018169
sS'seg_15'
p780
F69.35618419111515
sS'seg_75'
p781
F68.45907446579672
sS'seg_10'
p782
F71.24193714161923
sS'seg_5'
p783
F70.28377750829468
sS'seg_0'
p784
F71.14180474021678
sS'seg_100'
p785
F77.17847606545794
sS'seg_45'
p786
F65.20951962805682
sS'seg_40'
p787
F66.4549243654576
sS'seg_80'
p788
F73.93879038560415
sg18
F5.3217077988942776e+138
sS'seg_85'
p789
F77.49563115467421
sS'seg_25'
p790
F68.08214344532162
sS'seg_20'
p791
F68.69716945719776
sS'seg_60'
p792
F73.97342465707399
sS'seg_65'
p793
F65.55391577878878
ssI37
(dp794
S'seg_95'
p795
F94.9181512641288
sS'seg_90'
p796
F94.97047920218318
sS'seg_50'
p797
F94.3707687755709
sS'seg_55'
p798
F93.94036865821505
sS'seg_35'
p799
F96.85958736454825
sS'seg_30'
p800
F93.49251158362772
sS'seg_70'
p801
F94.35129650385294
sS'seg_15'
p802
F93.81700038909898
sS'seg_75'
p803
F94.03440765680196
sS'seg_10'
p804
F93.72986154174272
sS'seg_5'
p805
F94.60450793004433
sS'seg_0'
p806
F93.98862611108385
sS'seg_100'
p807
F95.19036213835194
sS'seg_45'
p808
F93.8161217551595
sS'seg_40'
p809
F93.45666885797155
sS'seg_80'
p810
F94.51292988329396
sg18
F4.977365367109023e+21
sS'seg_85'
p811
F94.79773666583692
sS'seg_25'
p812
F93.67484904055775
sS'seg_20'
p813
F94.01296552550636
sS'seg_60'
p814
F94.03155594285707
sS'seg_65'
p815
F93.91364529043855
ssI38
(dp816
S'seg_95'
p817
F127.98115530001515
sS'seg_90'
p818
F127.68099998085816
sS'seg_50'
p819
F130.07235832107304
sS'seg_55'
p820
F129.25565107866865
sS'seg_35'
p821
F131.16033257094966
sS'seg_30'
p822
F131.6833024128774
sS'seg_70'
p823
F128.17636697211717
sS'seg_15'
p824
F133.621825883101
sS'seg_75'
p825
F128.1274957506681
sS'seg_10'
p826
F134.133899924611
sS'seg_5'
p827
F134.90823117935935
sS'seg_0'
p828
F136.01465860343654
sS'seg_100'
p829
F128.2936185341719
sS'seg_45'
p830
F130.18719713451068
sS'seg_40'
p831
F130.87687579826564
sS'seg_80'
p832
F127.91328587471453
sg18
F553.4491347715931
sS'seg_85'
p833
F127.71219486989173
sS'seg_25'
p834
F132.43526741406356
sS'seg_20'
p835
F133.28943027754286
sS'seg_60'
p836
F129.09522949986766
sS'seg_65'
p837
F128.5706940970495
ssI39
(dp838
S'seg_95'
p839
F73.0805557246586
sS'seg_90'
p840
F73.10339198006109
sS'seg_50'
p841
F72.98449951082888
sS'seg_55'
p842
F73.99247151579536
sS'seg_35'
p843
F296.10682401090685
sS'seg_30'
p844
F287.010630022569
sS'seg_70'
p845
F73.1713075102231
sS'seg_15'
p846
F376.6897114435376
sS'seg_75'
p847
F73.0316341831519
sS'seg_10'
p848
F477.971836851097
sS'seg_5'
p849
F383.7331934485066
sS'seg_0'
p850
F1524.2875581718622
sS'seg_100'
p851
F73.03257433107392
sS'seg_45'
p852
F101.28142801253284
sS'seg_40'
p853
F78.73244480741639
sS'seg_80'
p854
F73.11603759818047
sg18
F15999373395.732996
sS'seg_85'
p855
F72.89791806236029
sS'seg_25'
p856
F336.5203638178815
sS'seg_20'
p857
F308.97425830277996
sS'seg_60'
p858
F73.26282198793501
sS'seg_65'
p859
F73.29885741452392
ssI40
(dp860
S'seg_95'
p861
F302.8358111915332
sS'seg_90'
p862
F386.15188862834464
sS'seg_50'
p863
F333.12183762678933
sS'seg_55'
p864
F864.055172856721
sS'seg_35'
p865
F172.5868784326413
sS'seg_30'
p866
F181.17087328810564
sS'seg_70'
p867
F870.495452801338
sS'seg_15'
p868
F198.3314638901006
sS'seg_75'
p869
F510.6893207987221
sS'seg_10'
p870
F209.7159698605613
sS'seg_5'
p871
F227.5208895448797
sS'seg_0'
p872
F235.839330382926
sS'seg_100'
p873
F266.55196036482647
sS'seg_45'
p874
F162.12097849525674
sS'seg_40'
p875
F289.4185938735461
sS'seg_80'
p876
F446.98672019540754
sg18
F4.2338388169236055e+40
sS'seg_85'
p877
F454.7775755794038
sS'seg_25'
p878
F186.64951890016383
sS'seg_20'
p879
F194.34401305005872
sS'seg_60'
p880
F711.1764531927936
sS'seg_65'
p881
F1084.3005875678646
ssI41
(dp882
S'seg_95'
p883
F85.54747119245546
sS'seg_90'
p884
F85.91551295363719
sS'seg_50'
p885
F89.47405046226902
sS'seg_55'
p886
F88.96083915696717
sS'seg_35'
p887
F91.25108149025958
sS'seg_30'
p888
F91.80998424463685
sS'seg_70'
p889
F87.45568566132917
sS'seg_15'
p890
F93.49205744987225
sS'seg_75'
p891
F87.4029857777451
sS'seg_10'
p892
F95.5293893045774
sS'seg_5'
p893
F95.51100274294274
sS'seg_0'
p894
F100.05635757101477
sS'seg_100'
p895
F84.80466178104656
sS'seg_45'
p896
F89.67040852081409
sS'seg_40'
p897
F90.46661600537722
sS'seg_80'
p898
F86.53818389221004
sg18
F6.572055655513508e+114
sS'seg_85'
p899
F86.67937293490647
sS'seg_25'
p900
F92.22685075421738
sS'seg_20'
p901
F92.94095156007458
sS'seg_60'
p902
F88.26709852770306
sS'seg_65'
p903
F88.00550477780864
ssI42
(dp904
S'seg_95'
p905
F124.18601615426492
sS'seg_90'
p906
F124.2436445944046
sS'seg_50'
p907
F125.85257480005855
sS'seg_55'
p908
F125.50763450784004
sS'seg_35'
p909
F127.53803736316459
sS'seg_30'
p910
F128.2318553301926
sS'seg_70'
p911
F124.76846716555164
sS'seg_15'
p912
F132.5101914714681
sS'seg_75'
p913
F124.58728451551467
sS'seg_10'
p914
F136.87119429377162
sS'seg_5'
p915
F138.3945005761452
sS'seg_0'
p916
F141.89289445103938
sS'seg_100'
p917
F124.15368647899001
sS'seg_45'
p918
F126.49469431556982
sS'seg_40'
p919
F126.53498485534831
sS'seg_80'
p920
F125.11321721309073
sg18
F4538240841.394358
sS'seg_85'
p921
F124.32058224059588
sS'seg_25'
p922
F128.77426000453977
sS'seg_20'
p923
F140.52372669678775
sS'seg_60'
p924
F125.24261383099233
sS'seg_65'
p925
F124.98378277375339
ssI43
(dp926
S'seg_95'
p927
F168.8641377226913
sS'seg_90'
p928
F169.46700257374363
sS'seg_50'
p929
F167.6200056473241
sS'seg_55'
p930
F167.2975403158309
sS'seg_35'
p931
F168.63297447846176
sS'seg_30'
p932
F169.47247503175032
sS'seg_70'
p933
F166.61195515145556
sS'seg_15'
p934
F170.43073594003505
sS'seg_75'
p935
F168.01444256759783
sS'seg_10'
p936
F170.56340667162738
sS'seg_5'
p937
F170.8893480437391
sS'seg_0'
p938
F171.34697968447836
sS'seg_100'
p939
F187.41865466605353
sS'seg_45'
p940
F168.0125966873905
sS'seg_40'
p941
F168.0501358229049
sS'seg_80'
p942
F166.0313055340886
sg18
F189.76598435243648
sS'seg_85'
p943
F168.6941495922309
sS'seg_25'
p944
F169.46903841599362
sS'seg_20'
p945
F169.59444929510715
sS'seg_60'
p946
F166.96341153821584
sS'seg_65'
p947
F167.84278110590176
ssI44
(dp948
S'seg_95'
p949
F39.638120298923994
sS'seg_90'
p950
F37.503796116674465
sS'seg_50'
p951
F34.0237887818223
sS'seg_55'
p952
F35.124465584154876
sS'seg_35'
p953
F34.17985609504491
sS'seg_30'
p954
F34.10132745152987
sS'seg_70'
p955
F33.87973089404883
sS'seg_15'
p956
F34.45421929645246
sS'seg_75'
p957
F33.69269899202615
sS'seg_10'
p958
F34.57456687863113
sS'seg_5'
p959
F34.79792349022787
sS'seg_0'
p960
F35.95522189889543
sS'seg_100'
p961
F40.72648427364836
sS'seg_45'
p962
F34.35889322363066
sS'seg_40'
p963
F34.80663780811661
sS'seg_80'
p964
F35.1636582073233
sg18
F9.980208127262047e+168
sS'seg_85'
p965
F36.70694782778919
sS'seg_25'
p966
F34.06853134613121
sS'seg_20'
p967
F34.16057855662073
sS'seg_60'
p968
F33.981276968243705
sS'seg_65'
p969
F34.05156387756834
ssI45
(dp970
S'seg_95'
p971
F84.49193376435805
sS'seg_90'
p972
F85.20796711694288
sS'seg_50'
p973
F85.66073161643561
sS'seg_55'
p974
F85.7453462592059
sS'seg_35'
p975
F86.64448255645898
sS'seg_30'
p976
F87.36043580271686
sS'seg_70'
p977
F85.09003903685017
sS'seg_15'
p978
F90.30270122034645
sS'seg_75'
p979
F84.17958730638922
sS'seg_10'
p980
F90.284162053664
sS'seg_5'
p981
F90.60417799988089
sS'seg_0'
p982
F91.78030824519138
sS'seg_100'
p983
F83.36782209282478
sS'seg_45'
p984
F85.79193886755557
sS'seg_40'
p985
F85.92576173274445
sS'seg_80'
p986
F84.30044274753118
sg18
F364.6475390332797
sS'seg_85'
p987
F84.41336787495788
sS'seg_25'
p988
F88.42759247294028
sS'seg_20'
p989
F89.36490308671723
sS'seg_60'
p990
F84.83244995780055
sS'seg_65'
p991
F84.46195567117714
ssI46
(dp992
S'seg_95'
p993
F68.58835613128788
sS'seg_90'
p994
F69.757878913987
sS'seg_50'
p995
F83.60766602721515
sS'seg_55'
p996
F70.39768216593066
sS'seg_35'
p997
F76.86055075200002
sS'seg_30'
p998
F100.87487348526817
sS'seg_70'
p999
F71.3154012880322
sS'seg_15'
p1000
F95.02828122583534
sS'seg_75'
p1001
F68.21862299545208
sS'seg_10'
p1002
F115.27823188454322
sS'seg_5'
p1003
F126.82057511585234
sS'seg_0'
p1004
F229.39300449668312
sS'seg_100'
p1005
F72.76593474000974
sS'seg_45'
p1006
F79.96122718387161
sS'seg_40'
p1007
F89.0599538126369
sS'seg_80'
p1008
F70.80900730175291
sg18
F1.715428142772667e+194
sS'seg_85'
p1009
F71.06593623664644
sS'seg_25'
p1010
F107.77949121640975
sS'seg_20'
p1011
F84.98556147447778
sS'seg_60'
p1012
F74.940477576358
sS'seg_65'
p1013
F72.10659164653627
ssI47
(dp1014
S'seg_95'
p1015
F817.5331322146292
sS'seg_90'
p1016
F1111.2974758010232
sS'seg_50'
p1017
F53275.85135544485
sS'seg_55'
p1018
F18622.712495900283
sS'seg_35'
p1019
F623684.1484615051
sS'seg_30'
p1020
F814010.206326118
sS'seg_70'
p1021
F3842.5663823820296
sS'seg_15'
p1022
F35196666244005.64
sS'seg_75'
p1023
F1683.7020816196532
sS'seg_10'
p1024
F9.262742558355157e+16
sS'seg_5'
p1025
F4.623308307577349e+17
sS'seg_0'
p1026
F1.9728888883547277e+23
sS'seg_100'
p1027
F869.3823454172928
sS'seg_45'
p1028
F201536.9174558437
sS'seg_40'
p1029
F325540.5935954091
sS'seg_80'
p1030
F1246.294716325799
sg18
F1.680465089173011e+175
sS'seg_85'
p1031
F1113.5701309472156
sS'seg_25'
p1032
F3627310.0715589253
sS'seg_20'
p1033
F8193846274.762868
sS'seg_60'
p1034
F11091.29790918858
sS'seg_65'
p1035
F3501.6999997609973
ssI48
(dp1036
S'seg_95'
p1037
F49.73284267496708
sS'seg_90'
p1038
F41.46872727021106
sS'seg_50'
p1039
F91.73288458204652
sS'seg_55'
p1040
F40.59041430822254
sS'seg_35'
p1041
F29.20760146288806
sS'seg_30'
p1042
F27.63160543841559
sS'seg_70'
p1043
F39.44570316942969
sS'seg_15'
p1044
F28.736181493990802
sS'seg_75'
p1045
F50.132365022401096
sS'seg_10'
p1046
F29.711633459150924
sS'seg_5'
p1047
F29.53237371337652
sS'seg_0'
p1048
F31.321070193471957
sS'seg_100'
p1049
F43.30498013313387
sS'seg_45'
p1050
F47.66098845424863
sS'seg_40'
p1051
F61.99409370046883
sS'seg_80'
p1052
F41.75591530317233
sg18
F58.049329316280804
sS'seg_85'
p1053
F43.30064917828898
sS'seg_25'
p1054
F27.734824207031515
sS'seg_20'
p1055
F28.307585066847356
sS'seg_60'
p1056
F46.105243169176205
sS'seg_65'
p1057
F44.09681020721923
ss.