(dp0
I1
(dp1
S'seg_95'
p2
F169.07513947202938
sS'seg_90'
p3
F159.53753348771787
sS'seg_50'
p4
F159.55056748011117
sS'seg_55'
p5
F157.6641209491402
sS'seg_35'
p6
F167.8847654422495
sS'seg_30'
p7
F164.97588980243103
sS'seg_70'
p8
F158.92244710210642
sS'seg_15'
p9
F183.05267777961967
sS'seg_75'
p10
F154.49808160473285
sS'seg_10'
p11
F186.38494995431716
sS'seg_5'
p12
F195.72083728101632
sS'seg_0'
p13
F210.2485473332174
sS'seg_100'
p14
F175.82708693782186
sS'seg_45'
p15
F159.83722559844725
sS'seg_40'
p16
F163.10719162367957
sS'seg_80'
p17
F154.71915148075928
sS'sw'
p18
F164.70184904194525
sS'seg_85'
p19
F154.64921848038475
sS'seg_25'
p20
F170.00593666513848
sS'seg_20'
p21
F175.47558979129158
sS'seg_60'
p22
F157.14353496185038
sS'seg_65'
p23
F160.33548301917588
ssI2
(dp24
S'seg_95'
p25
F134.6074433548593
sS'seg_90'
p26
F127.58990547654044
sS'seg_50'
p27
F190.83737244301216
sS'seg_55'
p28
F217.25129025267375
sS'seg_35'
p29
F181.74178608955148
sS'seg_30'
p30
F251.46404713071473
sS'seg_70'
p31
F132.16106311348915
sS'seg_15'
p32
F999.868285368756
sS'seg_75'
p33
F134.52077464917448
sS'seg_10'
p34
F3717.3290727646954
sS'seg_5'
p35
F22135.00726555293
sS'seg_0'
p36
F636366.8781300675
sS'seg_100'
p37
F128.76981376695215
sS'seg_45'
p38
F178.65828703191002
sS'seg_40'
p39
F190.21857656880542
sS'seg_80'
p40
F126.03951863265145
sg18
F232.55677694254098
sS'seg_85'
p41
F128.87097070731375
sS'seg_25'
p42
F528.4985002416456
sS'seg_20'
p43
F415.9430988339782
sS'seg_60'
p44
F147.9299359611923
sS'seg_65'
p45
F148.7931620412969
ssI3
(dp46
S'seg_95'
p47
F199.07020488383716
sS'seg_90'
p48
F198.1826585677558
sS'seg_50'
p49
F209.1762549384388
sS'seg_55'
p50
F207.20322381269935
sS'seg_35'
p51
F212.66993108315447
sS'seg_30'
p52
F211.9470727106625
sS'seg_70'
p53
F204.0208999716926
sS'seg_15'
p54
F212.788916133586
sS'seg_75'
p55
F202.6363546899664
sS'seg_10'
p56
F212.28667880690426
sS'seg_5'
p57
F212.09829774178837
sS'seg_0'
p58
F211.5565409465963
sS'seg_100'
p59
F199.41705927927046
sS'seg_45'
p60
F209.36308350394052
sS'seg_40'
p61
F211.93405862351665
sS'seg_80'
p62
F201.9155512349039
sg18
F202.81891611643192
sS'seg_85'
p63
F200.0009189292436
sS'seg_25'
p64
F213.8964284433899
sS'seg_20'
p65
F213.57025575500816
sS'seg_60'
p66
F207.12143067490132
sS'seg_65'
p67
F206.16854695271348
ssI4
(dp68
S'seg_95'
p69
F694.1722532405731
sS'seg_90'
p70
F644.784931812442
sS'seg_50'
p71
F418.03225252801815
sS'seg_55'
p72
F442.3934433098574
sS'seg_35'
p73
F372.11000493967055
sS'seg_30'
p74
F362.2859067129437
sS'seg_70'
p75
F512.5235979233664
sS'seg_15'
p76
F349.8655725722443
sS'seg_75'
p77
F547.4012869437935
sS'seg_10'
p78
F345.00423386685804
sS'seg_5'
p79
F341.32490519485015
sS'seg_0'
p80
F344.16175884029997
sS'seg_100'
p81
F884.0232980347794
sS'seg_45'
p82
F399.47602966732705
sS'seg_40'
p83
F386.3831701207137
sS'seg_80'
p84
F547.8308352144497
sg18
F502.3408660528469
sS'seg_85'
p85
F600.6685972134693
sS'seg_25'
p86
F356.10124832851943
sS'seg_20'
p87
F348.8739699145834
sS'seg_60'
p88
F469.90828668241903
sS'seg_65'
p89
F487.567472154981
ssI5
(dp90
S'seg_95'
p91
F875.7793067820152
sS'seg_90'
p92
F504.61216413313394
sS'seg_50'
p93
F361.63723712882177
sS'seg_55'
p94
F361.2392254051232
sS'seg_35'
p95
F360.850683669138
sS'seg_30'
p96
F362.294877976149
sS'seg_70'
p97
F377.23433853674334
sS'seg_15'
p98
F365.1951704973402
sS'seg_75'
p99
F386.54550551867936
sS'seg_10'
p100
F365.99088086752806
sS'seg_5'
p101
F367.20678868576823
sS'seg_0'
p102
F367.99732756639764
sS'seg_100'
p103
F4.4658993108265984e+17
sS'seg_45'
p104
F360.96626582331936
sS'seg_40'
p105
F361.88776701914617
sS'seg_80'
p106
F408.48453416847684
sg18
F363.2318577818258
sS'seg_85'
p107
F435.89983623462876
sS'seg_25'
p108
F363.3290049777963
sS'seg_20'
p109
F364.0339173761946
sS'seg_60'
p110
F363.0713697661671
sS'seg_65'
p111
F367.8113785539247
ssI6
(dp112
S'seg_95'
p113
F140.31465603719192
sS'seg_90'
p114
F132.91037537841896
sS'seg_50'
p115
F160.7933420648168
sS'seg_55'
p116
F156.32667568354537
sS'seg_35'
p117
F160.19040589341546
sS'seg_30'
p118
F176.23170899239898
sS'seg_70'
p119
F137.68502048854816
sS'seg_15'
p120
F195.18813324570414
sS'seg_75'
p121
F137.6774224258457
sS'seg_10'
p122
F192.93037939927606
sS'seg_5'
p123
F208.5625515160354
sS'seg_0'
p124
F206.53992565044837
sS'seg_100'
p125
F153.73997546613052
sS'seg_45'
p126
F159.30478366951309
sS'seg_40'
p127
F164.8007913078504
sS'seg_80'
p128
F135.9325428223396
sg18
F3103141.221236462
sS'seg_85'
p129
F135.74319794108993
sS'seg_25'
p130
F173.1227954289967
sS'seg_20'
p131
F178.49259482716258
sS'seg_60'
p132
F141.38416797372741
sS'seg_65'
p133
F148.8095832273765
ssI7
(dp134
S'seg_95'
p135
F5.515079142218331e+16
sS'seg_90'
p136
F207.43544433506517
sS'seg_50'
p137
F241.1609195111368
sS'seg_55'
p138
F230.45125778853566
sS'seg_35'
p139
F254.87665324370127
sS'seg_30'
p140
F301.1307410898545
sS'seg_70'
p141
F207.11682574398182
sS'seg_15'
p142
F268.9999601649773
sS'seg_75'
p143
F200.14378169166727
sS'seg_10'
p144
F264.5594512554084
sS'seg_5'
p145
F292.02050483075925
sS'seg_0'
p146
F440.11375364436645
sS'seg_100'
p147
F692.1730575001083
sS'seg_45'
p148
F242.63902088938735
sS'seg_40'
p149
F252.50338914555454
sS'seg_80'
p150
F203.3453940310646
sg18
F554.4173395345838
sS'seg_85'
p151
F203.29485044776376
sS'seg_25'
p152
F255.79071880816272
sS'seg_20'
p153
F235.6891740682519
sS'seg_60'
p154
F215.87901820657262
sS'seg_65'
p155
F210.40855392817602
ssI8
(dp156
S'seg_95'
p157
F196.62882286078298
sS'seg_90'
p158
F171.04224276811533
sS'seg_50'
p159
F148.90876330666268
sS'seg_55'
p160
F134.7325530238294
sS'seg_35'
p161
F149.48014365758252
sS'seg_30'
p162
F147.51074338467532
sS'seg_70'
p163
F146.60507928979777
sS'seg_15'
p164
F165.9626230530635
sS'seg_75'
p165
F149.56459487420096
sS'seg_10'
p166
F164.95893024433934
sS'seg_5'
p167
F174.35026438951394
sS'seg_0'
p168
F180.91536218385377
sS'seg_100'
p169
F167.3334481836134
sS'seg_45'
p170
F142.2164079199405
sS'seg_40'
p171
F149.02425853072992
sS'seg_80'
p172
F151.04017559258335
sg18
F190.6297828499086
sS'seg_85'
p173
F154.7487029986406
sS'seg_25'
p174
F157.09679355019983
sS'seg_20'
p175
F165.38929878248945
sS'seg_60'
p176
F140.3367716027174
sS'seg_65'
p177
F139.94750268511
ssI9
(dp178
S'seg_95'
p179
F709.3709809784974
sS'seg_90'
p180
F543.6415930497751
sS'seg_50'
p181
F373.16349947053317
sS'seg_55'
p182
F382.974125529941
sS'seg_35'
p183
F364.70151603201333
sS'seg_30'
p184
F361.0673854221098
sS'seg_70'
p185
F406.27878990410716
sS'seg_15'
p186
F358.4289674168009
sS'seg_75'
p187
F428.4849262706997
sS'seg_10'
p188
F356.3523911549352
sS'seg_5'
p189
F365.9607288641191
sS'seg_0'
p190
F373.4632902855434
sS'seg_100'
p191
F4839094913.213197
sS'seg_45'
p192
F368.71796749321055
sS'seg_40'
p193
F368.4733205813032
sS'seg_80'
p194
F453.3297474402384
sg18
F2390994940099.134
sS'seg_85'
p195
F501.1248540213781
sS'seg_25'
p196
F359.9898251212354
sS'seg_20'
p197
F357.48787394440774
sS'seg_60'
p198
F387.48313494926987
sS'seg_65'
p199
F402.1614404967891
ssI10
(dp200
S'seg_95'
p201
F169.7480810175393
sS'seg_90'
p202
F151.47290904814662
sS'seg_50'
p203
F80.77103987398462
sS'seg_55'
p204
F92.05256632239251
sS'seg_35'
p205
F82.65162326222543
sS'seg_30'
p206
F83.35094965347798
sS'seg_70'
p207
F138.61672095629973
sS'seg_15'
p208
F88.12564688675604
sS'seg_75'
p209
F147.3366159098726
sS'seg_10'
p210
F89.07685319047422
sS'seg_5'
p211
F90.23781083212157
sS'seg_0'
p212
F88.94061017539782
sS'seg_100'
p213
F173.052046540047
sS'seg_45'
p214
F84.65705687213647
sS'seg_40'
p215
F82.14245860535732
sS'seg_80'
p216
F162.80800598002293
sg18
F150.26962029236418
sS'seg_85'
p217
F180.0091176572436
sS'seg_25'
p218
F86.03077557903852
sS'seg_20'
p219
F86.21066205805802
sS'seg_60'
p220
F87.29494386437055
sS'seg_65'
p221
F112.60239229047359
ssI11
(dp222
S'seg_95'
p223
F298902771601.27356
sS'seg_90'
p224
F45930.09023495345
sS'seg_50'
p225
F816.9436683443522
sS'seg_55'
p226
F705.6259407391178
sS'seg_35'
p227
F755.4760105259617
sS'seg_30'
p228
F1292.8890303783694
sS'seg_70'
p229
F12815.583130300916
sS'seg_15'
p230
F61.6252371670257
sS'seg_75'
p231
F6980.997831724177
sS'seg_10'
p232
F64.26170567830107
sS'seg_5'
p233
F65.77848533552836
sS'seg_0'
p234
F68.98767040268663
sS'seg_100'
p235
F201.23777365075003
sS'seg_45'
p236
F1731445.5231907233
sS'seg_40'
p237
F1106.52859206623
sS'seg_80'
p238
F18687.158060148497
sg18
F44.528520643711055
sS'seg_85'
p239
F467316435.4154226
sS'seg_25'
p240
F10153.994498451626
sS'seg_20'
p241
F1443.368106900518
sS'seg_60'
p242
F609.4237496815546
sS'seg_65'
p243
F18217.09617629059
ssI12
(dp244
S'seg_95'
p245
F67.55521727974
sS'seg_90'
p246
F65.19590693738434
sS'seg_50'
p247
F68.52404942476454
sS'seg_55'
p248
F63.93581448522826
sS'seg_35'
p249
F77.08353655371975
sS'seg_30'
p250
F94.90182383203242
sS'seg_70'
p251
F62.872822390378374
sS'seg_15'
p252
F123.66532011271872
sS'seg_75'
p253
F60.797959026136574
sS'seg_10'
p254
F166.64063812720065
sS'seg_5'
p255
F267.20770899736016
sS'seg_0'
p256
F259.95448887473515
sS'seg_100'
p257
F76.9441480302106
sS'seg_45'
p258
F73.09233143958356
sS'seg_40'
p259
F72.11194021278325
sS'seg_80'
p260
F64.85751708820882
sg18
F150.35645796731978
sS'seg_85'
p261
F62.69115690658477
sS'seg_25'
p262
F95.92258437688214
sS'seg_20'
p263
F119.1216228248306
sS'seg_60'
p264
F63.05760366174597
sS'seg_65'
p265
F62.475920456896596
ssI13
(dp266
S'seg_95'
p267
F243.59392031320482
sS'seg_90'
p268
F225.98557656345724
sS'seg_50'
p269
F208.1485398473281
sS'seg_55'
p270
F210.34014001043744
sS'seg_35'
p271
F224.09884747258496
sS'seg_30'
p272
F232.74665154303997
sS'seg_70'
p273
F206.52381879967464
sS'seg_15'
p274
F258.78667216893825
sS'seg_75'
p275
F212.02852959403944
sS'seg_10'
p276
F270.41351367576556
sS'seg_5'
p277
F284.85862286949623
sS'seg_0'
p278
F313.036889700678
sS'seg_100'
p279
F285.3858942874559
sS'seg_45'
p280
F213.73525380031168
sS'seg_40'
p281
F223.3391925133582
sS'seg_80'
p282
F208.65702513564574
sg18
F345.9753880446759
sS'seg_85'
p283
F209.46170933397548
sS'seg_25'
p284
F239.55562558003535
sS'seg_20'
p285
F246.24178120386165
sS'seg_60'
p286
F209.18083415905534
sS'seg_65'
p287
F212.28398716742726
ssI14
(dp288
S'seg_95'
p289
F125.12589478462523
sS'seg_90'
p290
F125.65918335290253
sS'seg_50'
p291
F137.32752703768006
sS'seg_55'
p292
F133.03194157107208
sS'seg_35'
p293
F139.03837621760474
sS'seg_30'
p294
F154.1335603922656
sS'seg_70'
p295
F130.3285311206019
sS'seg_15'
p296
F182.92007414822484
sS'seg_75'
p297
F129.83144939639595
sS'seg_10'
p298
F186.49882590568623
sS'seg_5'
p299
F181.48597876647642
sS'seg_0'
p300
F221.20472886314943
sS'seg_100'
p301
F123.99199596440442
sS'seg_45'
p302
F139.04768877004742
sS'seg_40'
p303
F136.14482565978142
sS'seg_80'
p304
F130.18442894507115
sg18
F222.84919276119484
sS'seg_85'
p305
F127.74661747850651
sS'seg_25'
p306
F152.2890396453418
sS'seg_20'
p307
F157.1520229624992
sS'seg_60'
p308
F132.5962341392274
sS'seg_65'
p309
F132.29632467083135
ssI15
(dp310
S'seg_95'
p311
F98.62360236822647
sS'seg_90'
p312
F106.09742487186315
sS'seg_50'
p313
F92.079700672572
sS'seg_55'
p314
F90.70631984984406
sS'seg_35'
p315
F100.2545240365605
sS'seg_30'
p316
F100.99531764774619
sS'seg_70'
p317
F91.90128722211574
sS'seg_15'
p318
F155.96290292527902
sS'seg_75'
p319
F87.65136646919106
sS'seg_10'
p320
F125.95787090261501
sS'seg_5'
p321
F129.53411435241378
sS'seg_0'
p322
F115.66327926043846
sS'seg_100'
p323
F104.63017469162756
sS'seg_45'
p324
F86.8629102428108
sS'seg_40'
p325
F99.96099360413001
sS'seg_80'
p326
F91.50534702280173
sg18
F3357277544029492.0
sS'seg_85'
p327
F97.01434514571163
sS'seg_25'
p328
F147.7459584575069
sS'seg_20'
p329
F108.07816192144041
sS'seg_60'
p330
F87.13014332266505
sS'seg_65'
p331
F96.86106841100303
ssI16
(dp332
S'seg_95'
p333
F337.9396443995554
sS'seg_90'
p334
F402.48073077944986
sS'seg_50'
p335
F151.56332132009885
sS'seg_55'
p336
F148.2047872137524
sS'seg_35'
p337
F166.6825771228005
sS'seg_30'
p338
F166.39933124143502
sS'seg_70'
p339
F313.6713765205428
sS'seg_15'
p340
F178.47437369240293
sS'seg_75'
p341
F313.3734575780271
sS'seg_10'
p342
F176.06216540901596
sS'seg_5'
p343
F187.2054849112344
sS'seg_0'
p344
F201.17590105886697
sS'seg_100'
p345
F331.0108915416304
sS'seg_45'
p346
F161.81637333315203
sS'seg_40'
p347
F157.7243112056099
sS'seg_80'
p348
F284.63122826936063
sg18
F7140.133090762511
sS'seg_85'
p349
F361.02555406958203
sS'seg_25'
p350
F168.46148668031586
sS'seg_20'
p351
F179.18895567749595
sS'seg_60'
p352
F180.93038014347266
sS'seg_65'
p353
F253.54165474604557
ssI17
(dp354
S'seg_95'
p355
F94.51558063071116
sS'seg_90'
p356
F92.69381036766566
sS'seg_50'
p357
F122.60009252657883
sS'seg_55'
p358
F121.72264567548685
sS'seg_35'
p359
F113.88503708092253
sS'seg_30'
p360
F144.3838785327525
sS'seg_70'
p361
F108.0728133369144
sS'seg_15'
p362
F243.43393582349967
sS'seg_75'
p363
F108.32696872484766
sS'seg_10'
p364
F345.13441054488305
sS'seg_5'
p365
F264.6478749311833
sS'seg_0'
p366
F324.3726683029205
sS'seg_100'
p367
F85.6250788502285
sS'seg_45'
p368
F126.6632802809979
sS'seg_40'
p369
F140.08007116427103
sS'seg_80'
p370
F107.30896316603409
sg18
F9153.64286750893
sS'seg_85'
p371
F96.1166376533602
sS'seg_25'
p372
F162.65011548451636
sS'seg_20'
p373
F168.32769385676482
sS'seg_60'
p374
F109.72946566234805
sS'seg_65'
p375
F102.8986733437112
ssI18
(dp376
S'seg_95'
p377
F98.76205293440925
sS'seg_90'
p378
F76.00798163567863
sS'seg_50'
p379
F68.67731826898738
sS'seg_55'
p380
F61.84080766056987
sS'seg_35'
p381
F89.42383613130363
sS'seg_30'
p382
F145.41883287679195
sS'seg_70'
p383
F58.52147727723818
sS'seg_15'
p384
F848.4829229983332
sS'seg_75'
p385
F59.18387189616546
sS'seg_10'
p386
F933.9924722143014
sS'seg_5'
p387
F1330.9438891886316
sS'seg_0'
p388
F1611.5032225731602
sS'seg_100'
p389
F2089957126417431.5
sS'seg_45'
p390
F83.42793127658943
sS'seg_40'
p391
F68.28735703357052
sS'seg_80'
p392
F59.11717497787928
sg18
F35612279870897.18
sS'seg_85'
p393
F63.49130291961819
sS'seg_25'
p394
F324.7560671106044
sS'seg_20'
p395
F266.0358150038916
sS'seg_60'
p396
F58.84640990222874
sS'seg_65'
p397
F58.36872681350013
ssI19
(dp398
S'seg_95'
p399
F156.40304812219387
sS'seg_90'
p400
F155.6325339202063
sS'seg_50'
p401
F159.13255258019504
sS'seg_55'
p402
F160.70058349041312
sS'seg_35'
p403
F163.40558309385943
sS'seg_30'
p404
F166.5752545840281
sS'seg_70'
p405
F158.59749575620003
sS'seg_15'
p406
F173.36130744686636
sS'seg_75'
p407
F156.25705412874547
sS'seg_10'
p408
F177.59035719134243
sS'seg_5'
p409
F181.9681848060382
sS'seg_0'
p410
F189.67881510746798
sS'seg_100'
p411
F152.01329562560724
sS'seg_45'
p412
F158.45224180306118
sS'seg_40'
p413
F161.42408385606066
sS'seg_80'
p414
F156.36414600416518
sg18
F3478316.3501530164
sS'seg_85'
p415
F155.9432848306089
sS'seg_25'
p416
F166.27704320899295
sS'seg_20'
p417
F168.27007171685332
sS'seg_60'
p418
F159.7983723937505
sS'seg_65'
p419
F157.60348854203275
ssI20
(dp420
S'seg_95'
p421
F110.5604325504654
sS'seg_90'
p422
F97.71133822229342
sS'seg_50'
p423
F73.14215028654769
sS'seg_55'
p424
F75.9426463896798
sS'seg_35'
p425
F75.81320476735615
sS'seg_30'
p426
F65.5589786823725
sS'seg_70'
p427
F76.35257857209997
sS'seg_15'
p428
F67.1672224053234
sS'seg_75'
p429
F79.6553344560747
sS'seg_10'
p430
F77.57450586116428
sS'seg_5'
p431
F79.63712332140076
sS'seg_0'
p432
F81.88235576083785
sS'seg_100'
p433
F110.96576472213971
sS'seg_45'
p434
F75.58810451269804
sS'seg_40'
p435
F73.56540723139412
sS'seg_80'
p436
F84.48858322017097
sg18
F80.25664430459581
sS'seg_85'
p437
F88.62277619138206
sS'seg_25'
p438
F76.93964133741633
sS'seg_20'
p439
F74.90499573611353
sS'seg_60'
p440
F73.97928878739393
sS'seg_65'
p441
F75.13276187552648
ssI21
(dp442
S'seg_95'
p443
F241.71715823389724
sS'seg_90'
p444
F674.6548228316041
sS'seg_50'
p445
F9398.807956622759
sS'seg_55'
p446
F1332.518863777257
sS'seg_35'
p447
F20840.965418776716
sS'seg_30'
p448
F417143.3717394954
sS'seg_70'
p449
F309.8466965911397
sS'seg_15'
p450
F2075538.8863654018
sS'seg_75'
p451
F612.0191260089239
sS'seg_10'
p452
F8074101.3925137
sS'seg_5'
p453
F36918399.030024454
sS'seg_0'
p454
F29419943.095327377
sS'seg_100'
p455
F118.5878295838266
sS'seg_45'
p456
F2082.2268068478943
sS'seg_40'
p457
F6838.622937696418
sS'seg_80'
p458
F496.0472972639447
sg18
F138183952226.866
sS'seg_85'
p459
F289.78269126348107
sS'seg_25'
p460
F1027316.8343335983
sS'seg_20'
p461
F759305.7181952202
sS'seg_60'
p462
F1236.0787074905347
sS'seg_65'
p463
F1094.2224065499145
ssI22
(dp464
S'seg_95'
p465
F179.04386898399497
sS'seg_90'
p466
F445.45380356738696
sS'seg_50'
p467
F268.8716145949743
sS'seg_55'
p468
F296.1766942957276
sS'seg_35'
p469
F2137317532347.0403
sS'seg_30'
p470
F2227.73088526357
sS'seg_70'
p471
F212.87101659740546
sS'seg_15'
p472
F5387.964008791567
sS'seg_75'
p473
F210.50091928492898
sS'seg_10'
p474
F40591.79641173846
sS'seg_5'
p475
F86369.72488208138
sS'seg_0'
p476
F156368.03150054658
sS'seg_100'
p477
F167.34884572950392
sS'seg_45'
p478
F401.9458237831222
sS'seg_40'
p479
F636.2763868901313
sS'seg_80'
p480
F230.21184120087136
sg18
F445006.52160631254
sS'seg_85'
p481
F231.11526855071662
sS'seg_25'
p482
F907.2371959685722
sS'seg_20'
p483
F5669.89955187793
sS'seg_60'
p484
F244.08671515936544
sS'seg_65'
p485
F234.81567272755973
ssI23
(dp486
S'seg_95'
p487
F154.68731363480225
sS'seg_90'
p488
F154.89518409743667
sS'seg_50'
p489
F167.83684797303744
sS'seg_55'
p490
F165.42463740547345
sS'seg_35'
p491
F177.71093279858692
sS'seg_30'
p492
F174.54927478961244
sS'seg_70'
p493
F160.45802620779304
sS'seg_15'
p494
F180.58965023847122
sS'seg_75'
p495
F159.93978769879078
sS'seg_10'
p496
F193.5824287299696
sS'seg_5'
p497
F194.28083497454637
sS'seg_0'
p498
F197.22246910221702
sS'seg_100'
p499
F153.69099075776606
sS'seg_45'
p500
F169.32053817776784
sS'seg_40'
p501
F170.04403038882137
sS'seg_80'
p502
F159.53555752462836
sg18
F254309.7509357352
sS'seg_85'
p503
F158.70174636055629
sS'seg_25'
p504
F174.99266532096598
sS'seg_20'
p505
F183.80762650095153
sS'seg_60'
p506
F160.93066281602668
sS'seg_65'
p507
F162.21101503830724
ssI24
(dp508
S'seg_95'
p509
F486.9886527047564
sS'seg_90'
p510
F353.55420126386605
sS'seg_50'
p511
F237.421445284544
sS'seg_55'
p512
F240.6118443179398
sS'seg_35'
p513
F235.8955251151207
sS'seg_30'
p514
F235.94526494900023
sS'seg_70'
p515
F255.21956149137023
sS'seg_15'
p516
F243.63698335114432
sS'seg_75'
p517
F262.89577463478713
sS'seg_10'
p518
F249.1160831325576
sS'seg_5'
p519
F250.29441538917953
sS'seg_0'
p520
F257.878695555972
sS'seg_100'
p521
F5.479343936790927e+19
sS'seg_45'
p522
F235.2807746571963
sS'seg_40'
p523
F234.86787057291252
sS'seg_80'
p524
F281.68843741656735
sg18
F290.6316663450439
sS'seg_85'
p525
F300.7012807531488
sS'seg_25'
p526
F236.7243280058734
sS'seg_20'
p527
F242.35030172716588
sS'seg_60'
p528
F242.75320418129436
sS'seg_65'
p529
F249.6246293347112
ssI25
(dp530
S'seg_95'
p531
F45.50773710116398
sS'seg_90'
p532
F45.785631756243056
sS'seg_50'
p533
F46.64052396481334
sS'seg_55'
p534
F46.22029545674202
sS'seg_35'
p535
F48.644687229184086
sS'seg_30'
p536
F49.25327516672794
sS'seg_70'
p537
F45.33291260355098
sS'seg_15'
p538
F52.35382728446407
sS'seg_75'
p539
F45.65471806477575
sS'seg_10'
p540
F54.75771809463039
sS'seg_5'
p541
F56.02843256378753
sS'seg_0'
p542
F57.1714154177608
sS'seg_100'
p543
F46.25904895464994
sS'seg_45'
p544
F47.33848012754576
sS'seg_40'
p545
F47.97430632533813
sS'seg_80'
p546
F45.09650466876673
sg18
F481.89455311121395
sS'seg_85'
p547
F45.03522411944727
sS'seg_25'
p548
F50.5207713542014
sS'seg_20'
p549
F51.98915523986848
sS'seg_60'
p550
F46.0830929406893
sS'seg_65'
p551
F45.58641761071969
ssI26
(dp552
S'seg_95'
p553
F270.19074542186087
sS'seg_90'
p554
F262.1850672468057
sS'seg_50'
p555
F148.29635014900853
sS'seg_55'
p556
F146.08865989230938
sS'seg_35'
p557
F156.3656034176235
sS'seg_30'
p558
F157.7062243272304
sS'seg_70'
p559
F224.75798953275321
sS'seg_15'
p560
F161.28895162129015
sS'seg_75'
p561
F213.53774655977605
sS'seg_10'
p562
F164.401436235095
sS'seg_5'
p563
F172.6441121171719
sS'seg_0'
p564
F181.6053480581389
sS'seg_100'
p565
F272.82957268156827
sS'seg_45'
p566
F150.91178001378253
sS'seg_40'
p567
F150.50606088191864
sS'seg_80'
p568
F276.7581092777881
sg18
F142.4869008602268
sS'seg_85'
p569
F298.10791992102486
sS'seg_25'
p570
F157.40248503226806
sS'seg_20'
p571
F158.02979230731268
sS'seg_60'
p572
F151.12730458184424
sS'seg_65'
p573
F164.8419588559323
ssI27
(dp574
S'seg_95'
p575
F96.06428962004735
sS'seg_90'
p576
F94.13730708821907
sS'seg_50'
p577
F144.89105014600128
sS'seg_55'
p578
F128.8864699545338
sS'seg_35'
p579
F107.74019165419911
sS'seg_30'
p580
F123.00599022462616
sS'seg_70'
p581
F125.15116331387856
sS'seg_15'
p582
F110.21578438699301
sS'seg_75'
p583
F120.92752697568599
sS'seg_10'
p584
F125.34794623305592
sS'seg_5'
p585
F120.229993707385
sS'seg_0'
p586
F119.0382656799682
sS'seg_100'
p587
F89.57895082155234
sS'seg_45'
p588
F128.10719229324738
sS'seg_40'
p589
F198.16177186768897
sS'seg_80'
p590
F116.66040536229953
sg18
F414.57281290879865
sS'seg_85'
p591
F108.06750378507373
sS'seg_25'
p592
F101.60879288267503
sS'seg_20'
p593
F105.46269187448881
sS'seg_60'
p594
F140.45052769102577
sS'seg_65'
p595
F117.34933407463716
ssI28
(dp596
S'seg_95'
p597
F128.9274632711551
sS'seg_90'
p598
F127.76901433097278
sS'seg_50'
p599
F130.47959086254485
sS'seg_55'
p600
F131.22331188405428
sS'seg_35'
p601
F134.82872097843602
sS'seg_30'
p602
F136.29650142324277
sS'seg_70'
p603
F127.14214242771052
sS'seg_15'
p604
F142.29754866373455
sS'seg_75'
p605
F127.9883933908761
sS'seg_10'
p606
F144.27633675531274
sS'seg_5'
p607
F147.35676540067394
sS'seg_0'
p608
F149.26264615043212
sS'seg_100'
p609
F130.8454833969991
sS'seg_45'
p610
F132.69483596565112
sS'seg_40'
p611
F133.3624268764392
sS'seg_80'
p612
F127.53734778951355
sg18
F166.3705227496323
sS'seg_85'
p613
F126.76452884427667
sS'seg_25'
p614
F137.23530358033662
sS'seg_20'
p615
F139.17753627524823
sS'seg_60'
p616
F128.77934680663105
sS'seg_65'
p617
F127.55698366050804
ssI29
(dp618
S'seg_95'
p619
F230.67742225733068
sS'seg_90'
p620
F232.78661989793645
sS'seg_50'
p621
F237.32757141778015
sS'seg_55'
p622
F237.21536731898794
sS'seg_35'
p623
F239.22036096696746
sS'seg_30'
p624
F240.51413339163523
sS'seg_70'
p625
F233.4507358213193
sS'seg_15'
p626
F244.3313403789538
sS'seg_75'
p627
F232.05683064555205
sS'seg_10'
p628
F246.76891990942187
sS'seg_5'
p629
F252.6399804870436
sS'seg_0'
p630
F250.08504917121223
sS'seg_100'
p631
F247.64416777562502
sS'seg_45'
p632
F234.55544496064363
sS'seg_40'
p633
F237.12931247909282
sS'seg_80'
p634
F231.19452132664554
sg18
F364.8049955840989
sS'seg_85'
p635
F230.6039363628783
sS'seg_25'
p636
F240.09704321004173
sS'seg_20'
p637
F242.44945653063724
sS'seg_60'
p638
F235.10664067327843
sS'seg_65'
p639
F235.15958025305423
ssI30
(dp640
S'seg_95'
p641
F98.43283154851285
sS'seg_90'
p642
F98.53062913198096
sS'seg_50'
p643
F104.7929657691199
sS'seg_55'
p644
F101.98555405403553
sS'seg_35'
p645
F105.6452824002617
sS'seg_30'
p646
F106.8579097983539
sS'seg_70'
p647
F100.26575245695506
sS'seg_15'
p648
F112.9002117030816
sS'seg_75'
p649
F101.22569109890273
sS'seg_10'
p650
F114.38933970251828
sS'seg_5'
p651
F119.63714446790591
sS'seg_0'
p652
F124.97064523940512
sS'seg_100'
p653
F98.07132595852269
sS'seg_45'
p654
F102.64625895404701
sS'seg_40'
p655
F104.59562065528996
sS'seg_80'
p656
F101.26925095603794
sg18
F107.54295935954232
sS'seg_85'
p657
F98.40898846665729
sS'seg_25'
p658
F105.24175449933766
sS'seg_20'
p659
F113.80985923775832
sS'seg_60'
p660
F102.1994285116046
sS'seg_65'
p661
F99.69435508486174
ssI31
(dp662
S'seg_95'
p663
F176.6264784084073
sS'seg_90'
p664
F174.31367549049637
sS'seg_50'
p665
F177.26788384650246
sS'seg_55'
p666
F177.65487357114543
sS'seg_35'
p667
F181.25689924231298
sS'seg_30'
p668
F182.2224059368241
sS'seg_70'
p669
F173.84486718346474
sS'seg_15'
p670
F187.57103394331088
sS'seg_75'
p671
F173.9918885939107
sS'seg_10'
p672
F189.5085016856722
sS'seg_5'
p673
F189.25696147164086
sS'seg_0'
p674
F191.8474610794613
sS'seg_100'
p675
F181.28828436219925
sS'seg_45'
p676
F180.0361306112982
sS'seg_40'
p677
F180.26161123237108
sS'seg_80'
p678
F174.14843896078509
sg18
F193.86624796848145
sS'seg_85'
p679
F173.8053414686313
sS'seg_25'
p680
F186.01780749589875
sS'seg_20'
p681
F186.98563087828742
sS'seg_60'
p682
F175.98465786333495
sS'seg_65'
p683
F174.8802934902272
ssI32
(dp684
S'seg_95'
p685
F176.8102815992205
sS'seg_90'
p686
F172.83235805879787
sS'seg_50'
p687
F168.05005419932655
sS'seg_55'
p688
F167.98536306718958
sS'seg_35'
p689
F172.24615401866902
sS'seg_30'
p690
F174.4649713682672
sS'seg_70'
p691
F166.96821884954593
sS'seg_15'
p692
F177.17849687076423
sS'seg_75'
p693
F166.7370835119492
sS'seg_10'
p694
F179.80776842480523
sS'seg_5'
p695
F179.5086856202619
sS'seg_0'
p696
F183.08145973196912
sS'seg_100'
p697
F187.36812746804344
sS'seg_45'
p698
F169.69451053771698
sS'seg_40'
p699
F170.64501078411203
sS'seg_80'
p700
F166.3820407032787
sg18
F425.54811523900173
sS'seg_85'
p701
F167.1357828512031
sS'seg_25'
p702
F175.3112041795739
sS'seg_20'
p703
F176.13779744942752
sS'seg_60'
p704
F168.10856961593691
sS'seg_65'
p705
F167.71716999790723
ssI33
(dp706
S'seg_95'
p707
F40.49156119376269
sS'seg_90'
p708
F40.40435867664533
sS'seg_50'
p709
F41.29495814524026
sS'seg_55'
p710
F41.312188700694335
sS'seg_35'
p711
F42.29456344621043
sS'seg_30'
p712
F42.89311078073429
sS'seg_70'
p713
F40.90165911805731
sS'seg_15'
p714
F49.016773175303946
sS'seg_75'
p715
F40.61622220990486
sS'seg_10'
p716
F77.91185023899956
sS'seg_5'
p717
F93.76584134051278
sS'seg_0'
p718
F164.82288238589575
sS'seg_100'
p719
F499.99999999999807
sS'seg_45'
p720
F41.618556672445024
sS'seg_40'
p721
F42.001392231504454
sS'seg_80'
p722
F40.415745844723226
sg18
F233.47621729323515
sS'seg_85'
p723
F40.433949635265456
sS'seg_25'
p724
F43.43707296372169
sS'seg_20'
p725
F44.01502894034742
sS'seg_60'
p726
F41.02700515417989
sS'seg_65'
p727
F41.18282237609263
ssI34
(dp728
S'seg_95'
p729
F270.61125061948826
sS'seg_90'
p730
F349.09303231709333
sS'seg_50'
p731
F210.63878774376877
sS'seg_55'
p732
F239.31727983180886
sS'seg_35'
p733
F210.10627207352792
sS'seg_30'
p734
F191.97607190873177
sS'seg_70'
p735
F252.4500308441681
sS'seg_15'
p736
F69.31024960873773
sS'seg_75'
p737
F205.0604346485865
sS'seg_10'
p738
F73.65148809893876
sS'seg_5'
p739
F91.64313592195093
sS'seg_0'
p740
F196.63392137343524
sS'seg_100'
p741
F262.6162377525047
sS'seg_45'
p742
F245.19795285933233
sS'seg_40'
p743
F216.54277519276167
sS'seg_80'
p744
F222.51574813846614
sg18
F12365446877027.652
sS'seg_85'
p745
F171.42441583265173
sS'seg_25'
p746
F163.045027587221
sS'seg_20'
p747
F120.84420974837512
sS'seg_60'
p748
F197.2485794483451
sS'seg_65'
p749
F175.57112316103257
ssI35
(dp750
S'seg_95'
p751
F5791035312.574622
sS'seg_90'
p752
F14465046732.345285
sS'seg_50'
p753
F2283.2863415144616
sS'seg_55'
p754
F26242740.16094338
sS'seg_35'
p755
F515022224.45264256
sS'seg_30'
p756
F48492.95995563936
sS'seg_70'
p757
F18386456.036323477
sS'seg_15'
p758
F3159856012.3868737
sS'seg_75'
p759
F15652862.959805936
sS'seg_10'
p760
F3588896363.409274
sS'seg_5'
p761
F37741337833.86531
sS'seg_0'
p762
F16791103697.06702
sS'seg_100'
p763
F278.5251878581739
sS'seg_45'
p764
F33795654.58702634
sS'seg_40'
p765
F1265.5849153936506
sS'seg_80'
p766
F2380922427.154058
sg18
F943439157584717.4
sS'seg_85'
p767
F4493236476.849368
sS'seg_25'
p768
F293294.8324304344
sS'seg_20'
p769
F452236272.9273553
sS'seg_60'
p770
F36029072.40432906
sS'seg_65'
p771
F18584820.18869015
ssI36
(dp772
S'seg_95'
p773
F72.97355607870131
sS'seg_90'
p774
F78.25895328855741
sS'seg_50'
p775
F65.49439498219553
sS'seg_55'
p776
F67.11099323257031
sS'seg_35'
p777
F68.13848605793882
sS'seg_30'
p778
F67.35580438047728
sS'seg_70'
p779
F69.76532661741757
sS'seg_15'
p780
F69.28246832836568
sS'seg_75'
p781
F65.87031076114012
sS'seg_10'
p782
F70.45397721658155
sS'seg_5'
p783
F70.3014828007148
sS'seg_0'
p784
F71.15065100545192
sS'seg_100'
p785
F74.36452686701728
sS'seg_45'
p786
F65.52789409728808
sS'seg_40'
p787
F66.53535352647478
sS'seg_80'
p788
F69.22259433127704
sg18
F16111058855205.172
sS'seg_85'
p789
F71.7856653985519
sS'seg_25'
p790
F68.12509074341959
sS'seg_20'
p791
F68.83657760968512
sS'seg_60'
p792
F68.54451150960097
sS'seg_65'
p793
F65.53137699848168
ssI37
(dp794
S'seg_95'
p795
F95.12714774614986
sS'seg_90'
p796
F94.76314986008438
sS'seg_50'
p797
F93.99553668448365
sS'seg_55'
p798
F93.92063973922333
sS'seg_35'
p799
F94.66658216872766
sS'seg_30'
p800
F93.4676557756562
sS'seg_70'
p801
F95.06136312231978
sS'seg_15'
p802
F93.78760773068583
sS'seg_75'
p803
F94.11916566972747
sS'seg_10'
p804
F93.76533896580221
sS'seg_5'
p805
F94.85181841047472
sS'seg_0'
p806
F93.97219134339777
sS'seg_100'
p807
F95.3327127058849
sS'seg_45'
p808
F93.85187439627092
sS'seg_40'
p809
F93.65467757967217
sS'seg_80'
p810
F94.5158619679288
sg18
F424.7748180101537
sS'seg_85'
p811
F94.7907838747476
sS'seg_25'
p812
F93.6515694042825
sS'seg_20'
p813
F94.00445461687272
sS'seg_60'
p814
F94.01908909323328
sS'seg_65'
p815
F93.84451918620711
ssI38
(dp816
S'seg_95'
p817
F128.96010510281354
sS'seg_90'
p818
F128.55826739335234
sS'seg_50'
p819
F130.24576119804942
sS'seg_55'
p820
F129.96922028049946
sS'seg_35'
p821
F131.26129186075084
sS'seg_30'
p822
F131.7060321124257
sS'seg_70'
p823
F129.23356645331484
sS'seg_15'
p824
F133.59552375789602
sS'seg_75'
p825
F129.01294162182324
sS'seg_10'
p826
F134.14502323675865
sS'seg_5'
p827
F134.87412939351276
sS'seg_0'
p828
F135.93258478850777
sS'seg_100'
p829
F129.4688338643453
sS'seg_45'
p830
F130.4775942345064
sS'seg_40'
p831
F131.16890677837634
sS'seg_80'
p832
F128.99813375266393
sg18
F309.20086375868146
sS'seg_85'
p833
F128.79900927169697
sS'seg_25'
p834
F132.2858609225697
sS'seg_20'
p835
F133.16027248040092
sS'seg_60'
p836
F129.7616651053699
sS'seg_65'
p837
F129.31407803384627
ssI39
(dp838
S'seg_95'
p839
F113.85779563520285
sS'seg_90'
p840
F94.11534046748474
sS'seg_50'
p841
F77.65967868834494
sS'seg_55'
p842
F78.27580564021159
sS'seg_35'
p843
F82.68585068485496
sS'seg_30'
p844
F85.94920486262097
sS'seg_70'
p845
F79.16294856882682
sS'seg_15'
p846
F84.22286778597028
sS'seg_75'
p847
F80.66597248366627
sS'seg_10'
p848
F87.56208754692747
sS'seg_5'
p849
F89.80945800512988
sS'seg_0'
p850
F110.80010277646518
sS'seg_100'
p851
F591.689892258124
sS'seg_45'
p852
F78.65676695106758
sS'seg_40'
p853
F78.24929016472181
sS'seg_80'
p854
F81.58969484724783
sg18
F380.0796922239396
sS'seg_85'
p855
F84.31766263989888
sS'seg_25'
p856
F87.73111579762094
sS'seg_20'
p857
F86.4285618045075
sS'seg_60'
p858
F78.89806944965855
sS'seg_65'
p859
F78.91698829193712
ssI40
(dp860
S'seg_95'
p861
F468.7800407828905
sS'seg_90'
p862
F409.1491611019701
sS'seg_50'
p863
F251.51258972998303
sS'seg_55'
p864
F435.41061381436293
sS'seg_35'
p865
F176.9239148182915
sS'seg_30'
p866
F178.58329479252887
sS'seg_70'
p867
F528.2508516665204
sS'seg_15'
p868
F199.8570392715746
sS'seg_75'
p869
F379.9386082954205
sS'seg_10'
p870
F209.47158614163544
sS'seg_5'
p871
F225.64680268520692
sS'seg_0'
p872
F235.60549304861587
sS'seg_100'
p873
F476.6876364072044
sS'seg_45'
p874
F165.94348819872837
sS'seg_40'
p875
F238.0818331201113
sS'seg_80'
p876
F459.2339519680707
sg18
F215528.4860849155
sS'seg_85'
p877
F387.455822423988
sS'seg_25'
p878
F193.0545869545232
sS'seg_20'
p879
F193.11448477574623
sS'seg_60'
p880
F428.63947764852526
sS'seg_65'
p881
F381.9611147299814
ssI41
(dp882
S'seg_95'
p883
F86.58450288525634
sS'seg_90'
p884
F86.66112180604851
sS'seg_50'
p885
F89.48214901529437
sS'seg_55'
p886
F88.93820162650404
sS'seg_35'
p887
F91.42890289160339
sS'seg_30'
p888
F91.81565409868341
sS'seg_70'
p889
F87.999017788115
sS'seg_15'
p890
F93.41558445200337
sS'seg_75'
p891
F87.52209122324678
sS'seg_10'
p892
F95.53503078811623
sS'seg_5'
p893
F95.62695570939287
sS'seg_0'
p894
F97.43981949885568
sS'seg_100'
p895
F86.4284946754168
sS'seg_45'
p896
F89.71424341118627
sS'seg_40'
p897
F90.4736925800422
sS'seg_80'
p898
F87.09397773001204
sg18
F1641.2117161235446
sS'seg_85'
p899
F87.29637258128736
sS'seg_25'
p900
F92.17107826738439
sS'seg_20'
p901
F93.13255721167084
sS'seg_60'
p902
F88.55716431661689
sS'seg_65'
p903
F88.07884722365259
ssI42
(dp904
S'seg_95'
p905
F135.25737915791376
sS'seg_90'
p906
F133.66838374847853
sS'seg_50'
p907
F130.4732446340046
sS'seg_55'
p908
F130.69031219599745
sS'seg_35'
p909
F132.2414476492233
sS'seg_30'
p910
F131.9516526643768
sS'seg_70'
p911
F131.0564074631336
sS'seg_15'
p912
F135.28631021981073
sS'seg_75'
p913
F131.73239786839
sS'seg_10'
p914
F138.58627936637626
sS'seg_5'
p915
F140.3211291336503
sS'seg_0'
p916
F141.808447444949
sS'seg_100'
p917
F137.05556425717987
sS'seg_45'
p918
F130.91315545986288
sS'seg_40'
p919
F131.41850181903254
sS'seg_80'
p920
F131.964895939582
sg18
F585.8266776945121
sS'seg_85'
p921
F132.1556365888969
sS'seg_25'
p922
F133.02726594384524
sS'seg_20'
p923
F135.92040359281899
sS'seg_60'
p924
F131.00643063839988
sS'seg_65'
p925
F130.84741997396569
ssI43
(dp926
S'seg_95'
p927
F166.2335103077042
sS'seg_90'
p928
F166.77919583385798
sS'seg_50'
p929
F167.6741110153413
sS'seg_55'
p930
F167.41529787066605
sS'seg_35'
p931
F168.52111344880572
sS'seg_30'
p932
F169.46194993244436
sS'seg_70'
p933
F166.50664144708773
sS'seg_15'
p934
F170.4160906281333
sS'seg_75'
p935
F166.75668942944117
sS'seg_10'
p936
F170.53445056568356
sS'seg_5'
p937
F170.8774084109405
sS'seg_0'
p938
F171.40295968795752
sS'seg_100'
p939
F175.33102739953122
sS'seg_45'
p940
F167.99229753305434
sS'seg_40'
p941
F168.02172082961607
sS'seg_80'
p942
F166.26108688297546
sg18
F172.0961403178977
sS'seg_85'
p943
F166.7219689885257
sS'seg_25'
p944
F169.47117369699703
sS'seg_20'
p945
F169.59567714621375
sS'seg_60'
p946
F166.97115058666492
sS'seg_65'
p947
F167.15827322938037
ssI44
(dp948
S'seg_95'
p949
F43.462860829702244
sS'seg_90'
p950
F39.130985856236876
sS'seg_50'
p951
F33.90487762733241
sS'seg_55'
p952
F34.03520828221267
sS'seg_35'
p953
F34.180687331474424
sS'seg_30'
p954
F34.076965892004345
sS'seg_70'
p955
F33.83761822615091
sS'seg_15'
p956
F34.42692429777467
sS'seg_75'
p957
F35.419600627795226
sS'seg_10'
p958
F34.60772958417817
sS'seg_5'
p959
F34.822516953080196
sS'seg_0'
p960
F35.74405068980872
sS'seg_100'
p961
F53.07922661257096
sS'seg_45'
p962
F34.41336205065715
sS'seg_40'
p963
F34.609084851627856
sS'seg_80'
p964
F40.60895015720912
sg18
F700717455352704.8
sS'seg_85'
p965
F36.95983957740903
sS'seg_25'
p966
F34.10209164020493
sS'seg_20'
p967
F34.14727027994359
sS'seg_60'
p968
F34.08144560212673
sS'seg_65'
p969
F34.51771650117793
ssI45
(dp970
S'seg_95'
p971
F83.86837612321851
sS'seg_90'
p972
F83.7763278886287
sS'seg_50'
p973
F83.7473240781359
sS'seg_55'
p974
F83.66945457582695
sS'seg_35'
p975
F84.35467748708197
sS'seg_30'
p976
F84.33224832879219
sS'seg_70'
p977
F83.44345930454192
sS'seg_15'
p978
F85.0441210310003
sS'seg_75'
p979
F83.24795132619262
sS'seg_10'
p980
F85.41961496475184
sS'seg_5'
p981
F85.85401907956833
sS'seg_0'
p982
F86.0199811410071
sS'seg_100'
p983
F84.10622435450242
sS'seg_45'
p984
F83.98912735310282
sS'seg_40'
p985
F83.83943375075948
sS'seg_80'
p986
F83.53945032095871
sg18
F137.69154633321247
sS'seg_85'
p987
F83.47656102150793
sS'seg_25'
p988
F84.72990458852082
sS'seg_20'
p989
F85.29094318504103
sS'seg_60'
p990
F83.49147639573552
sS'seg_65'
p991
F83.24474030908186
ssI46
(dp992
S'seg_95'
p993
F87.5681793539595
sS'seg_90'
p994
F73.41138965262553
sS'seg_50'
p995
F64.60147202627715
sS'seg_55'
p996
F63.747176639139035
sS'seg_35'
p997
F66.16697432320186
sS'seg_30'
p998
F67.16371146520089
sS'seg_70'
p999
F67.26352408313377
sS'seg_15'
p1000
F69.97446050194802
sS'seg_75'
p1001
F66.57912514541452
sS'seg_10'
p1002
F71.89733402421257
sS'seg_5'
p1003
F75.47263703876472
sS'seg_0'
p1004
F75.58194463026982
sS'seg_100'
p1005
F94.89133565331932
sS'seg_45'
p1006
F64.02216475822954
sS'seg_40'
p1007
F64.50220529685903
sS'seg_80'
p1008
F68.44072813011482
sg18
F802735383349030.6
sS'seg_85'
p1009
F70.91881835466154
sS'seg_25'
p1010
F64.93779940344629
sS'seg_20'
p1011
F63.844131541381124
sS'seg_60'
p1012
F66.73242101914086
sS'seg_65'
p1013
F65.93435943937888
ssI47
(dp1014
S'seg_95'
p1015
F603.2819103661707
sS'seg_90'
p1016
F1290.7498294985849
sS'seg_50'
p1017
F412.57645589420525
sS'seg_55'
p1018
F411.87996327004976
sS'seg_35'
p1019
F454.46546288988463
sS'seg_30'
p1020
F1001.9301116261067
sS'seg_70'
p1021
F417.1586929319416
sS'seg_15'
p1022
F1528.9307547597323
sS'seg_75'
p1023
F338.1162513590416
sS'seg_10'
p1024
F9373959127241.814
sS'seg_5'
p1025
F3780.3613445048286
sS'seg_0'
p1026
F5590.67678231912
sS'seg_100'
p1027
F450.5736137207599
sS'seg_45'
p1028
F601.930802066787
sS'seg_40'
p1029
F486.0515361526174
sS'seg_80'
p1030
F407.64326521340314
sg18
F2108549528702631.0
sS'seg_85'
p1031
F705.0751944915784
sS'seg_25'
p1032
F810.6735742355454
sS'seg_20'
p1033
F1077.9643156237676
sS'seg_60'
p1034
F297.4664655818559
sS'seg_65'
p1035
F276.46114137304244
ssI48
(dp1036
S'seg_95'
p1037
F31.417546396800294
sS'seg_90'
p1038
F31.714536761001135
sS'seg_50'
p1039
F35.69135571426726
sS'seg_55'
p1040
F34.981910930948594
sS'seg_35'
p1041
F28.903873129474853
sS'seg_30'
p1042
F27.809816767037308
sS'seg_70'
p1043
F34.14521211062612
sS'seg_15'
p1044
F29.026760617757684
sS'seg_75'
p1045
F34.87922829692788
sS'seg_10'
p1046
F29.900429113511656
sS'seg_5'
p1047
F29.7766325792624
sS'seg_0'
p1048
F31.30247607954148
sS'seg_100'
p1049
F31.329080487931485
sS'seg_45'
p1050
F33.560466627754316
sS'seg_40'
p1051
F37.59633964805422
sS'seg_80'
p1052
F32.04749553945951
sg18
F58.376787538626786
sS'seg_85'
p1053
F31.998661842136585
sS'seg_25'
p1054
F27.89455201044989
sS'seg_20'
p1055
F28.62393864500367
sS'seg_60'
p1056
F33.80394441782646
sS'seg_65'
p1057
F35.681203104260746
ss.